EXPORTS 
	??_R0?AV?$_Func_base@AEAV?$basic_node@Umap_node_info@map@kmint@@@graph@kmint@@AEAV?$unique_ptr@V?$basic_node@Umap_node_info@map@kmint@@@graph@kmint@@U?$default_delete@V?$basic_node@Umap_node_info@map@kmint@@@graph@kmint@@@std@@@std@@@std@@@8 	 DATA
	??_R0?AV?$_Func_base@AEAVactor@play@kmint@@AEAV?$unique_ptr@Vactor@play@kmint@@U?$default_delete@Vactor@play@kmint@@@std@@@std@@@std@@@8 	 DATA
	??_R0?AV?$_Func_base@AEBVactor@play@kmint@@AEBV?$unique_ptr@Vactor@play@kmint@@U?$default_delete@Vactor@play@kmint@@@std@@@std@@@std@@@8 	 DATA
	??_R0?AV?$_Func_impl_no_alloc@P6AAEAV?$basic_node@Umap_node_info@map@kmint@@@graph@kmint@@AEBV?$unique_ptr@V?$basic_node@Umap_node_info@map@kmint@@@graph@kmint@@U?$default_delete@V?$basic_node@Umap_node_info@map@kmint@@@graph@kmint@@@std@@@std@@@ZAEAV123@AEAV45@@std@@@8 	 DATA
	??_R0?AV?$_Func_impl_no_alloc@P6AAEAVactor@play@kmint@@AEBV?$unique_ptr@Vactor@play@kmint@@U?$default_delete@Vactor@play@kmint@@@std@@@std@@@ZAEAV123@AEAV45@@std@@@8 	 DATA
	??_R0?AV?$_Func_impl_no_alloc@P6AAEBVactor@play@kmint@@AEBV?$unique_ptr@Vactor@play@kmint@@U?$default_delete@Vactor@play@kmint@@@std@@@std@@@ZAEBV123@AEBV45@@std@@@8 	 DATA
	??_R0?AV?$_Iosb@H@std@@@8 	 DATA
	??_R0?AV?$basic_ios@DU?$char_traits@D@std@@@std@@@8 	 DATA
	??_R0?AV?$basic_istream@DU?$char_traits@D@std@@@std@@@8 	 DATA
	??_R0?AV?$basic_istringstream@DU?$char_traits@D@std@@V?$allocator@D@2@@std@@@8 	 DATA
	??_R0?AV?$basic_streambuf@DU?$char_traits@D@std@@@std@@@8 	 DATA
	??_R0?AV?$basic_stringbuf@DU?$char_traits@D@std@@V?$allocator@D@2@@std@@@8 	 DATA
	??_R0?AVbad_alloc@std@@@8 	 DATA
	??_R0?AVbad_array_new_length@std@@@8 	 DATA
	??_R0?AVbad_cast@std@@@8 	 DATA
	??_R0?AVbad_variant_access@std@@@8 	 DATA
	??_R0?AVexception@std@@@8 	 DATA
	??_R0?AVinitialization_error@ui@kmint@@@8 	 DATA
	??_R0?AVios_base@std@@@8 	 DATA
	??_R0?AVlogic_error@std@@@8 	 DATA
	??_R0?AVruntime_error@std@@@8 	 DATA
	??_R0P6AAEAV?$basic_node@Umap_node_info@map@kmint@@@graph@kmint@@AEBV?$unique_ptr@V?$basic_node@Umap_node_info@map@kmint@@@graph@kmint@@U?$default_delete@V?$basic_node@Umap_node_info@map@kmint@@@graph@kmint@@@std@@@std@@@Z@8 	 DATA
	??_R0P6AAEAVactor@play@kmint@@AEBV?$unique_ptr@Vactor@play@kmint@@U?$default_delete@Vactor@play@kmint@@@std@@@std@@@Z@8 	 DATA
	??_R0P6AAEBVactor@play@kmint@@AEBV?$unique_ptr@Vactor@play@kmint@@U?$default_delete@Vactor@play@kmint@@@std@@@std@@@Z@8 	 DATA
	?_Psave@?$_Facetptr@V?$ctype@D@std@@@std@@2PEBVfacet@locale@2@EB 	 DATA
	??$?0$$V@?$_Compressed_pair@U?$default_delete@V?$quad_tree@$03@play@kmint@@@std@@PEAV?$quad_tree@$03@play@kmint@@$00@std@@QEAA@U_Zero_then_variadic_args_t@1@@Z
	??$?0$$V@?$_Compressed_pair@V?$allocator@D@std@@V?$_String_val@U?$_Simple_types@D@std@@@2@$00@std@@QEAA@U_Zero_then_variadic_args_t@1@@Z
	??$?0$$V@?$_Compressed_pair@V?$allocator@D@std@@V?$_Vector_val@U?$_Simple_types@D@std@@@2@$00@std@@QEAA@U_Zero_then_variadic_args_t@1@@Z
	??$?0$$V@?$_Compressed_pair@V?$allocator@PEAV?$basic_node@Umap_node_info@map@kmint@@@graph@kmint@@@std@@V?$_Vector_val@U?$_Simple_types@PEAV?$basic_node@Umap_node_info@map@kmint@@@graph@kmint@@@std@@@2@$00@std@@QEAA@U_Zero_then_variadic_args_t@1@@Z
	??$?0$$V@?$_Compressed_pair@V?$allocator@U?$_Tree_node@U?$pair@$$CBDUtile_info@map@kmint@@@std@@PEAX@std@@@std@@V?$_Tree_val@U?$_Tree_simple_types@U?$pair@$$CBDUtile_info@map@kmint@@@std@@@std@@@2@$00@std@@QEAA@U_Zero_then_variadic_args_t@1@@Z
	??$?0$$V@?$_Compressed_pair@V?$allocator@U?$_Tree_node@U?$pair@$$CBV?$basic_string@DU?$char_traits@D@std@@V?$allocator@D@2@@std@@Vtexture@sdl@ui@kmint@@@std@@PEAX@std@@@std@@V?$_Tree_val@U?$_Tree_simple_types@U?$pair@$$CBV?$basic_string@DU?$char_traits@D@std@@V?$allocator@D@2@@std@@Vtexture@sdl@ui@kmint@@@std@@@std@@@2@$00@std@@QEAA@U_Zero_then_variadic_args_t@1@@Z
	??$?0$$V@?$_Compressed_pair@V?$allocator@V?$unique_ptr@V?$basic_edge@Umap_node_info@map@kmint@@@graph@kmint@@U?$default_delete@V?$basic_edge@Umap_node_info@map@kmint@@@graph@kmint@@@std@@@std@@@std@@V?$_Vector_val@U?$_Simple_types@V?$unique_ptr@V?$basic_edge@Umap_node_info@map@kmint@@@graph@kmint@@U?$default_delete@V?$basic_edge@Umap_node_info@map@kmint@@@graph@kmint@@@std@@@std@@@std@@@2@$00@std@@QEAA@U_Zero_then_variadic_args_t@1@@Z
	??$?0$$V@?$_Compressed_pair@V?$allocator@V?$unique_ptr@V?$basic_edge@Uno_node_info@graph@kmint@@@graph@kmint@@U?$default_delete@V?$basic_edge@Uno_node_info@graph@kmint@@@graph@kmint@@@std@@@std@@@std@@V?$_Vector_val@U?$_Simple_types@V?$unique_ptr@V?$basic_edge@Uno_node_info@graph@kmint@@@graph@kmint@@U?$default_delete@V?$basic_edge@Uno_node_info@graph@kmint@@@graph@kmint@@@std@@@std@@@std@@@2@$00@std@@QEAA@U_Zero_then_variadic_args_t@1@@Z
	??$?0$$V@?$_Compressed_pair@V?$allocator@V?$unique_ptr@V?$basic_node@Umap_node_info@map@kmint@@@graph@kmint@@U?$default_delete@V?$basic_node@Umap_node_info@map@kmint@@@graph@kmint@@@std@@@std@@@std@@V?$_Vector_val@U?$_Simple_types@V?$unique_ptr@V?$basic_node@Umap_node_info@map@kmint@@@graph@kmint@@U?$default_delete@V?$basic_node@Umap_node_info@map@kmint@@@graph@kmint@@@std@@@std@@@std@@@2@$00@std@@QEAA@U_Zero_then_variadic_args_t@1@@Z
	??$?0$$V@?$_Compressed_pair@V?$allocator@V?$unique_ptr@V?$basic_node@Uno_node_info@graph@kmint@@@graph@kmint@@U?$default_delete@V?$basic_node@Uno_node_info@graph@kmint@@@graph@kmint@@@std@@@std@@@std@@V?$_Vector_val@U?$_Simple_types@V?$unique_ptr@V?$basic_node@Uno_node_info@graph@kmint@@@graph@kmint@@U?$default_delete@V?$basic_node@Uno_node_info@graph@kmint@@@graph@kmint@@@std@@@std@@@std@@@2@$00@std@@QEAA@U_Zero_then_variadic_args_t@1@@Z
	??$?0$0A@Ufree@?$quad_tree@$03@play@kmint@@$0A@@?$_Deleted_copy_assign@U?$_Variant_destroy_layer_@Ufree@?$quad_tree@$03@play@kmint@@Usaturated@234@@std@@Ufree@?$quad_tree@$03@play@kmint@@Usaturated@456@@std@@QEAA@U?$in_place_index_t@$0A@@1@$$QEAUfree@?$quad_tree@$03@play@kmint@@@Z
	??$?0$0A@Ufree@?$quad_tree@$03@play@kmint@@$0A@@?$_Non_trivial_move@U?$_Variant_destroy_layer_@Ufree@?$quad_tree@$03@play@kmint@@Usaturated@234@@std@@Ufree@?$quad_tree@$03@play@kmint@@Usaturated@456@@std@@QEAA@U?$in_place_index_t@$0A@@1@$$QEAUfree@?$quad_tree@$03@play@kmint@@@Z
	??$?0$0A@Ufree@?$quad_tree@$03@play@kmint@@$0A@@?$_Non_trivial_move_assign@U?$_Variant_destroy_layer_@Ufree@?$quad_tree@$03@play@kmint@@Usaturated@234@@std@@Ufree@?$quad_tree@$03@play@kmint@@Usaturated@456@@std@@QEAA@U?$in_place_index_t@$0A@@1@$$QEAUfree@?$quad_tree@$03@play@kmint@@@Z
	??$?0$0A@Ufree@?$quad_tree@$03@play@kmint@@$0A@@?$_Variant_base@Ufree@?$quad_tree@$03@play@kmint@@Usaturated@234@@std@@QEAA@U?$in_place_index_t@$0A@@1@$$QEAUfree@?$quad_tree@$03@play@kmint@@@Z
	??$?0$0A@Ufree@?$quad_tree@$03@play@kmint@@$0A@@?$_Variant_destroy_layer_@Ufree@?$quad_tree@$03@play@kmint@@Usaturated@234@@std@@QEAA@U?$in_place_index_t@$0A@@1@$$QEAUfree@?$quad_tree@$03@play@kmint@@@Z
	??$?0AEADAEAUtile_info@map@kmint@@$0A@@?$pair@$$CBDUtile_info@map@kmint@@@std@@QEAA@AEADAEAUtile_info@map@kmint@@@Z
	??$?0AEADAEAUtile_info@map@kmint@@@?$_Tree_temp_node@V?$allocator@U?$_Tree_node@U?$pair@$$CBDUtile_info@map@kmint@@@std@@PEAX@std@@@std@@@std@@QEAA@AEAV?$allocator@U?$_Tree_node@U?$pair@$$CBDUtile_info@map@kmint@@@std@@PEAX@std@@@1@PEAU?$_Tree_node@U?$pair@$$CBDUtile_info@map@kmint@@@std@@PEAX@1@AEADAEAUtile_info@map@kmint@@@Z
	??$?0AEAPEAU?$_List_node@U?$pair@$$CBDV?$vector@PEAV?$basic_node@Umap_node_info@map@kmint@@@graph@kmint@@V?$allocator@PEAV?$basic_node@Umap_node_info@map@kmint@@@graph@kmint@@@std@@@std@@@std@@PEAX@std@@_N$0A@@?$pair@PEAU?$_List_node@U?$pair@$$CBDV?$vector@PEAV?$basic_node@Umap_node_info@map@kmint@@@graph@kmint@@V?$allocator@PEAV?$basic_node@Umap_node_info@map@kmint@@@graph@kmint@@@std@@@std@@@std@@PEAX@std@@_N@std@@QEAA@AEAPEAU?$_List_node@U?$pair@$$CBDV?$vector@PEAV?$basic_node@Umap_node_info@map@kmint@@@graph@kmint@@V?$allocator@PEAV?$basic_node@Umap_node_info@map@kmint@@@graph@kmint@@@std@@@std@@@std@@PEAX@1@$$QEA_N@Z
	??$?0AEAPEAU?$_Tree_node@U?$pair@$$CBDUtile_info@map@kmint@@@std@@PEAX@std@@_N$0A@@?$pair@PEAU?$_Tree_node@U?$pair@$$CBDUtile_info@map@kmint@@@std@@PEAX@std@@_N@std@@QEAA@AEAPEAU?$_Tree_node@U?$pair@$$CBDUtile_info@map@kmint@@@std@@PEAX@1@$$QEA_N@Z
	??$?0AEAPEAU?$_Tree_node@U?$pair@$$CBV?$basic_string@DU?$char_traits@D@std@@V?$allocator@D@2@@std@@Vtexture@sdl@ui@kmint@@@std@@PEAX@std@@_N$0A@@?$pair@PEAU?$_Tree_node@U?$pair@$$CBV?$basic_string@DU?$char_traits@D@std@@V?$allocator@D@2@@std@@Vtexture@sdl@ui@kmint@@@std@@PEAX@std@@_N@std@@QEAA@AEAPEAU?$_Tree_node@U?$pair@$$CBV?$basic_string@DU?$char_traits@D@std@@V?$allocator@D@2@@std@@Vtexture@sdl@ui@kmint@@@std@@PEAX@1@$$QEA_N@Z
	??$?0AEAPEAUSDL_Renderer@@@?$_Compressed_pair@V?$destroyer@USDL_Renderer@@@sdl@ui@kmint@@PEAUSDL_Renderer@@$00@std@@QEAA@U_Zero_then_variadic_args_t@1@AEAPEAUSDL_Renderer@@@Z
	??$?0AEAPEAUSDL_Surface@@@?$_Compressed_pair@V?$destroyer@USDL_Surface@@@sdl@ui@kmint@@PEAUSDL_Surface@@$00@std@@QEAA@U_Zero_then_variadic_args_t@1@AEAPEAUSDL_Surface@@@Z
	??$?0AEAPEAUSDL_Texture@@@?$_Compressed_pair@V?$destroyer@USDL_Texture@@@sdl@ui@kmint@@PEAUSDL_Texture@@$00@std@@QEAA@U_Zero_then_variadic_args_t@1@AEAPEAUSDL_Texture@@@Z
	??$?0AEAPEAUSDL_Window@@@?$_Compressed_pair@V?$destroyer@USDL_Window@@@sdl@ui@kmint@@PEAUSDL_Window@@$00@std@@QEAA@U_Zero_then_variadic_args_t@1@AEAPEAUSDL_Window@@@Z
	??$?0AEAPEAUimpl@frame@ui@kmint@@@?$_Compressed_pair@U?$default_delete@Uimpl@frame@ui@kmint@@@std@@PEAUimpl@frame@ui@kmint@@$00@std@@QEAA@U_Zero_then_variadic_args_t@1@AEAPEAUimpl@frame@ui@kmint@@@Z
	??$?0AEAPEAV?$basic_edge@Umap_node_info@map@kmint@@@graph@kmint@@@?$_Compressed_pair@U?$default_delete@V?$basic_edge@Umap_node_info@map@kmint@@@graph@kmint@@@std@@PEAV?$basic_edge@Umap_node_info@map@kmint@@@graph@kmint@@$00@std@@QEAA@U_Zero_then_variadic_args_t@1@AEAPEAV?$basic_edge@Umap_node_info@map@kmint@@@graph@kmint@@@Z
	??$?0AEAPEAV?$basic_edge@Uno_node_info@graph@kmint@@@graph@kmint@@@?$_Compressed_pair@U?$default_delete@V?$basic_edge@Uno_node_info@graph@kmint@@@graph@kmint@@@std@@PEAV?$basic_edge@Uno_node_info@graph@kmint@@@graph@kmint@@$00@std@@QEAA@U_Zero_then_variadic_args_t@1@AEAPEAV?$basic_edge@Uno_node_info@graph@kmint@@@graph@kmint@@@Z
	??$?0AEAPEAV?$basic_node@Umap_node_info@map@kmint@@@graph@kmint@@@?$_Compressed_pair@U?$default_delete@V?$basic_node@Umap_node_info@map@kmint@@@graph@kmint@@@std@@PEAV?$basic_node@Umap_node_info@map@kmint@@@graph@kmint@@$00@std@@QEAA@U_Zero_then_variadic_args_t@1@AEAPEAV?$basic_node@Umap_node_info@map@kmint@@@graph@kmint@@@Z
	??$?0AEAPEAV?$basic_node@Uno_node_info@graph@kmint@@@graph@kmint@@@?$_Compressed_pair@U?$default_delete@V?$basic_node@Uno_node_info@graph@kmint@@@graph@kmint@@@std@@PEAV?$basic_node@Uno_node_info@graph@kmint@@@graph@kmint@@$00@std@@QEAA@U_Zero_then_variadic_args_t@1@AEAPEAV?$basic_node@Uno_node_info@graph@kmint@@@graph@kmint@@@Z
	??$?0AEAPEAV?$quad_tree@$03@play@kmint@@@?$_Compressed_pair@U?$default_delete@V?$quad_tree@$03@play@kmint@@@std@@PEAV?$quad_tree@$03@play@kmint@@$00@std@@QEAA@U_Zero_then_variadic_args_t@1@AEAPEAV?$quad_tree@$03@play@kmint@@@Z
	??$?0AEAPEAV_Facet_base@std@@@?$_Compressed_pair@U?$default_delete@V_Facet_base@std@@@std@@PEAV_Facet_base@2@$00@std@@QEAA@U_Zero_then_variadic_args_t@1@AEAPEAV_Facet_base@1@@Z
	??$?0AEAPEAVimpl@app@ui@kmint@@@?$_Compressed_pair@U?$default_delete@Vimpl@app@ui@kmint@@@std@@PEAVimpl@app@ui@kmint@@$00@std@@QEAA@U_Zero_then_variadic_args_t@1@AEAPEAVimpl@app@ui@kmint@@@Z
	??$?0AEAPEAVimpl@window@ui@kmint@@@?$_Compressed_pair@U?$default_delete@Vimpl@window@ui@kmint@@@std@@PEAVimpl@window@ui@kmint@@$00@std@@QEAA@U_Zero_then_variadic_args_t@1@AEAPEAVimpl@window@ui@kmint@@@Z
	??$?0AEBD$$Z$$V@?$pair@$$CBDV?$vector@PEAV?$basic_node@Umap_node_info@map@kmint@@@graph@kmint@@V?$allocator@PEAV?$basic_node@Umap_node_info@map@kmint@@@graph@kmint@@@std@@@std@@@std@@QEAA@Upiecewise_construct_t@1@V?$tuple@AEBD@1@V?$tuple@$$V@1@@Z
	??$?0AEBD$0A@@?$tuple@AEBD@std@@QEAA@AEBD@Z
	??$?0AEBD@?$_Tuple_val@AEBD@std@@QEAA@AEBD@Z
	??$?0AEBQ6AAEAV?$basic_node@Umap_node_info@map@kmint@@@graph@kmint@@AEBV?$unique_ptr@V?$basic_node@Umap_node_info@map@kmint@@@graph@kmint@@U?$default_delete@V?$basic_node@Umap_node_info@map@kmint@@@graph@kmint@@@std@@@std@@@Z$0A@@?$_Func_impl_no_alloc@P6AAEAV?$basic_node@Umap_node_info@map@kmint@@@graph@kmint@@AEBV?$unique_ptr@V?$basic_node@Umap_node_info@map@kmint@@@graph@kmint@@U?$default_delete@V?$basic_node@Umap_node_info@map@kmint@@@graph@kmint@@@std@@@std@@@ZAEAV123@AEAV45@@std@@QEAA@AEBQ6AAEAV?$basic_node@Umap_node_info@map@kmint@@@graph@kmint@@AEBV?$unique_ptr@V?$basic_node@Umap_node_info@map@kmint@@@graph@kmint@@U?$default_delete@V?$basic_node@Umap_node_info@map@kmint@@@graph@kmint@@@std@@@1@@Z@Z
	??$?0AEBQ6AAEAVactor@play@kmint@@AEBV?$unique_ptr@Vactor@play@kmint@@U?$default_delete@Vactor@play@kmint@@@std@@@std@@@Z$0A@@?$_Func_impl_no_alloc@P6AAEAVactor@play@kmint@@AEBV?$unique_ptr@Vactor@play@kmint@@U?$default_delete@Vactor@play@kmint@@@std@@@std@@@ZAEAV123@AEAV45@@std@@QEAA@AEBQ6AAEAVactor@play@kmint@@AEBV?$unique_ptr@Vactor@play@kmint@@U?$default_delete@Vactor@play@kmint@@@std@@@1@@Z@Z
	??$?0AEBQ6AAEBVactor@play@kmint@@AEBV?$unique_ptr@Vactor@play@kmint@@U?$default_delete@Vactor@play@kmint@@@std@@@std@@@Z$0A@@?$_Func_impl_no_alloc@P6AAEBVactor@play@kmint@@AEBV?$unique_ptr@Vactor@play@kmint@@U?$default_delete@Vactor@play@kmint@@@std@@@std@@@ZAEBV123@AEBV45@@std@@QEAA@AEBQ6AAEBVactor@play@kmint@@AEBV?$unique_ptr@Vactor@play@kmint@@U?$default_delete@Vactor@play@kmint@@@std@@@1@@Z@Z
	??$?0AEBU?$less@D@std@@U_Zero_then_variadic_args_t@1@@?$_Compressed_pair@U?$less@D@std@@V?$_Compressed_pair@V?$allocator@U?$_Tree_node@U?$pair@$$CBDUtile_info@map@kmint@@@std@@PEAX@std@@@std@@V?$_Tree_val@U?$_Tree_simple_types@U?$pair@$$CBDUtile_info@map@kmint@@@std@@@std@@@2@$00@2@$00@std@@QEAA@U_One_then_variadic_args_t@1@AEBU?$less@D@1@$$QEAU_Zero_then_variadic_args_t@1@@Z
	??$?0AEBU?$less@V?$basic_string@DU?$char_traits@D@std@@V?$allocator@D@2@@std@@@std@@U_Zero_then_variadic_args_t@1@@?$_Compressed_pair@U?$less@V?$basic_string@DU?$char_traits@D@std@@V?$allocator@D@2@@std@@@std@@V?$_Compressed_pair@V?$allocator@U?$_Tree_node@U?$pair@$$CBV?$basic_string@DU?$char_traits@D@std@@V?$allocator@D@2@@std@@Vtexture@sdl@ui@kmint@@@std@@PEAX@std@@@std@@V?$_Tree_val@U?$_Tree_simple_types@U?$pair@$$CBV?$basic_string@DU?$char_traits@D@std@@V?$allocator@D@2@@std@@Vtexture@sdl@ui@kmint@@@std@@@std@@@2@$00@2@$00@std@@QEAA@U_One_then_variadic_args_t@1@AEBU?$less@V?$basic_string@DU?$char_traits@D@std@@V?$allocator@D@2@@std@@@1@$$QEAU_Zero_then_variadic_args_t@1@@Z
	??$?0AEBUpiecewise_construct_t@std@@V?$tuple@AEBD@1@V?$tuple@$$V@1@@?$_List_node_emplace_op2@V?$allocator@U?$_List_node@U?$pair@$$CBDV?$vector@PEAV?$basic_node@Umap_node_info@map@kmint@@@graph@kmint@@V?$allocator@PEAV?$basic_node@Umap_node_info@map@kmint@@@graph@kmint@@@std@@@std@@@std@@PEAX@std@@@std@@@std@@QEAA@AEAV?$allocator@U?$_List_node@U?$pair@$$CBDV?$vector@PEAV?$basic_node@Umap_node_info@map@kmint@@@graph@kmint@@V?$allocator@PEAV?$basic_node@Umap_node_info@map@kmint@@@graph@kmint@@@std@@@std@@@std@@PEAX@std@@@1@AEBUpiecewise_construct_t@1@$$QEAV?$tuple@AEBD@1@$$QEAV?$tuple@$$V@1@@Z
	??$?0AEBV?$allocator@H@std@@$$V@?$_Compressed_pair@V?$allocator@H@std@@V?$_Vector_val@U?$_Simple_types@H@std@@@2@$00@std@@QEAA@U_One_then_variadic_args_t@1@AEBV?$allocator@H@1@@Z
	??$?0AEBV?$allocator@U?$pair@$$CBDV?$vector@PEAV?$basic_node@Umap_node_info@map@kmint@@@graph@kmint@@V?$allocator@PEAV?$basic_node@Umap_node_info@map@kmint@@@graph@kmint@@@std@@@std@@@std@@@std@@$$V@?$_Compressed_pair@V?$allocator@U?$_List_node@U?$pair@$$CBDV?$vector@PEAV?$basic_node@Umap_node_info@map@kmint@@@graph@kmint@@V?$allocator@PEAV?$basic_node@Umap_node_info@map@kmint@@@graph@kmint@@@std@@@std@@@std@@PEAX@std@@@std@@V?$_List_val@U?$_List_simple_types@U?$pair@$$CBDV?$vector@PEAV?$basic_node@Umap_node_info@map@kmint@@@graph@kmint@@V?$allocator@PEAV?$basic_node@Umap_node_info@map@kmint@@@graph@kmint@@@std@@@std@@@std@@@std@@@2@$00@std@@QEAA@U_One_then_variadic_args_t@1@AEBV?$allocator@U?$pair@$$CBDV?$vector@PEAV?$basic_node@Umap_node_info@map@kmint@@@graph@kmint@@V?$allocator@PEAV?$basic_node@Umap_node_info@map@kmint@@@graph@kmint@@@std@@@std@@@std@@@1@@Z
	??$?0AEBV?$allocator@U?$pair@$$CBDV?$vector@PEAV?$basic_node@Umap_node_info@map@kmint@@@graph@kmint@@V?$allocator@PEAV?$basic_node@Umap_node_info@map@kmint@@@graph@kmint@@@std@@@std@@@std@@@std@@$$V@?$_Compressed_pair@V?$allocator@V?$_List_unchecked_iterator@V?$_List_val@U?$_List_simple_types@U?$pair@$$CBDV?$vector@PEAV?$basic_node@Umap_node_info@map@kmint@@@graph@kmint@@V?$allocator@PEAV?$basic_node@Umap_node_info@map@kmint@@@graph@kmint@@@std@@@std@@@std@@@std@@@std@@@std@@@std@@V?$_Vector_val@U?$_Simple_types@V?$_List_unchecked_iterator@V?$_List_val@U?$_List_simple_types@U?$pair@$$CBDV?$vector@PEAV?$basic_node@Umap_node_info@map@kmint@@@graph@kmint@@V?$allocator@PEAV?$basic_node@Umap_node_info@map@kmint@@@graph@kmint@@@std@@@std@@@std@@@std@@@std@@@std@@@std@@@2@$00@std@@QEAA@U_One_then_variadic_args_t@1@AEBV?$allocator@U?$pair@$$CBDV?$vector@PEAV?$basic_node@Umap_node_info@map@kmint@@@graph@kmint@@V?$allocator@PEAV?$basic_node@Umap_node_info@map@kmint@@@graph@kmint@@@std@@@std@@@std@@@1@@Z
	??$?0AEBV?$allocator@U?$pair@$$CBDV?$vector@PEAV?$basic_node@Umap_node_info@map@kmint@@@graph@kmint@@V?$allocator@PEAV?$basic_node@Umap_node_info@map@kmint@@@graph@kmint@@@std@@@std@@@std@@@std@@$0A@@?$_Hash_vec@V?$allocator@V?$_List_unchecked_iterator@V?$_List_val@U?$_List_simple_types@U?$pair@$$CBDV?$vector@PEAV?$basic_node@Umap_node_info@map@kmint@@@graph@kmint@@V?$allocator@PEAV?$basic_node@Umap_node_info@map@kmint@@@graph@kmint@@@std@@@std@@@std@@@std@@@std@@@std@@@std@@@std@@QEAA@AEBV?$allocator@U?$pair@$$CBDV?$vector@PEAV?$basic_node@Umap_node_info@map@kmint@@@graph@kmint@@V?$allocator@PEAV?$basic_node@Umap_node_info@map@kmint@@@graph@kmint@@@std@@@std@@@std@@@1@@Z
	??$?0AEBV?$basic_string@DU?$char_traits@D@std@@V?$allocator@D@2@@std@@Vtexture@sdl@ui@kmint@@$0A@@?$pair@V?$basic_string@DU?$char_traits@D@std@@V?$allocator@D@2@@std@@Vtexture@sdl@ui@kmint@@@std@@QEAA@AEBV?$basic_string@DU?$char_traits@D@std@@V?$allocator@D@2@@1@$$QEAVtexture@sdl@ui@kmint@@@Z
	??$?0D@?$allocator@U_Container_proxy@std@@@std@@QEAA@AEBV?$allocator@D@1@@Z
	??$?0H@?$allocator@U_Container_proxy@std@@@std@@QEAA@AEBV?$allocator@H@1@@Z
	??$?0M@?$_Compressed_pair@U?$equal_to@D@std@@M$00@std@@QEAA@U_Zero_then_variadic_args_t@1@$$QEAM@Z
	??$?0P6AAEAV?$basic_node@Umap_node_info@map@kmint@@@graph@kmint@@AEBV?$unique_ptr@V?$basic_node@Umap_node_info@map@kmint@@@graph@kmint@@U?$default_delete@V?$basic_node@Umap_node_info@map@kmint@@@graph@kmint@@@std@@@std@@@Z$0A@@?$_Func_impl_no_alloc@P6AAEAV?$basic_node@Umap_node_info@map@kmint@@@graph@kmint@@AEBV?$unique_ptr@V?$basic_node@Umap_node_info@map@kmint@@@graph@kmint@@U?$default_delete@V?$basic_node@Umap_node_info@map@kmint@@@graph@kmint@@@std@@@std@@@ZAEAV123@AEAV45@@std@@QEAA@$$QEAP6AAEAV?$basic_node@Umap_node_info@map@kmint@@@graph@kmint@@AEBV?$unique_ptr@V?$basic_node@Umap_node_info@map@kmint@@@graph@kmint@@U?$default_delete@V?$basic_node@Umap_node_info@map@kmint@@@graph@kmint@@@std@@@1@@Z@Z
	??$?0P6AAEAV?$basic_node@Umap_node_info@map@kmint@@@graph@kmint@@AEBV?$unique_ptr@V?$basic_node@Umap_node_info@map@kmint@@@graph@kmint@@U?$default_delete@V?$basic_node@Umap_node_info@map@kmint@@@graph@kmint@@@std@@@std@@@Z$0A@@?$function@$$A6AAEAV?$basic_node@Umap_node_info@map@kmint@@@graph@kmint@@AEAV?$unique_ptr@V?$basic_node@Umap_node_info@map@kmint@@@graph@kmint@@U?$default_delete@V?$basic_node@Umap_node_info@map@kmint@@@graph@kmint@@@std@@@std@@@Z@std@@QEAA@P6AAEAV?$basic_node@Umap_node_info@map@kmint@@@graph@kmint@@AEBV?$unique_ptr@V?$basic_node@Umap_node_info@map@kmint@@@graph@kmint@@U?$default_delete@V?$basic_node@Umap_node_info@map@kmint@@@graph@kmint@@@std@@@1@@Z@Z
	??$?0P6AAEAVactor@play@kmint@@AEBV?$unique_ptr@Vactor@play@kmint@@U?$default_delete@Vactor@play@kmint@@@std@@@std@@@Z$0A@@?$_Func_impl_no_alloc@P6AAEAVactor@play@kmint@@AEBV?$unique_ptr@Vactor@play@kmint@@U?$default_delete@Vactor@play@kmint@@@std@@@std@@@ZAEAV123@AEAV45@@std@@QEAA@$$QEAP6AAEAVactor@play@kmint@@AEBV?$unique_ptr@Vactor@play@kmint@@U?$default_delete@Vactor@play@kmint@@@std@@@1@@Z@Z
	??$?0P6AAEAVactor@play@kmint@@AEBV?$unique_ptr@Vactor@play@kmint@@U?$default_delete@Vactor@play@kmint@@@std@@@std@@@Z$0A@@?$function@$$A6AAEAVactor@play@kmint@@AEAV?$unique_ptr@Vactor@play@kmint@@U?$default_delete@Vactor@play@kmint@@@std@@@std@@@Z@std@@QEAA@P6AAEAVactor@play@kmint@@AEBV?$unique_ptr@Vactor@play@kmint@@U?$default_delete@Vactor@play@kmint@@@std@@@1@@Z@Z
	??$?0P6AAEBVactor@play@kmint@@AEBV?$unique_ptr@Vactor@play@kmint@@U?$default_delete@Vactor@play@kmint@@@std@@@std@@@Z$0A@@?$_Func_impl_no_alloc@P6AAEBVactor@play@kmint@@AEBV?$unique_ptr@Vactor@play@kmint@@U?$default_delete@Vactor@play@kmint@@@std@@@std@@@ZAEBV123@AEBV45@@std@@QEAA@$$QEAP6AAEBVactor@play@kmint@@AEBV?$unique_ptr@Vactor@play@kmint@@U?$default_delete@Vactor@play@kmint@@@std@@@1@@Z@Z
	??$?0P6AAEBVactor@play@kmint@@AEBV?$unique_ptr@Vactor@play@kmint@@U?$default_delete@Vactor@play@kmint@@@std@@@std@@@Z$0A@@?$function@$$A6AAEBVactor@play@kmint@@AEBV?$unique_ptr@Vactor@play@kmint@@U?$default_delete@Vactor@play@kmint@@@std@@@std@@@Z@std@@QEAA@P6AAEBVactor@play@kmint@@AEBV?$unique_ptr@Vactor@play@kmint@@U?$default_delete@Vactor@play@kmint@@@std@@@1@@Z@Z
	??$?0PEAU?$_List_node@U?$pair@$$CBDV?$vector@PEAV?$basic_node@Umap_node_info@map@kmint@@@graph@kmint@@V?$allocator@PEAV?$basic_node@Umap_node_info@map@kmint@@@graph@kmint@@@std@@@std@@@std@@PEAX@std@@_N$0A@@?$pair@PEAU?$_List_node@U?$pair@$$CBDV?$vector@PEAV?$basic_node@Umap_node_info@map@kmint@@@graph@kmint@@V?$allocator@PEAV?$basic_node@Umap_node_info@map@kmint@@@graph@kmint@@@std@@@std@@@std@@PEAX@std@@_N@std@@QEAA@$$QEAPEAU?$_List_node@U?$pair@$$CBDV?$vector@PEAV?$basic_node@Umap_node_info@map@kmint@@@graph@kmint@@V?$allocator@PEAV?$basic_node@Umap_node_info@map@kmint@@@graph@kmint@@@std@@@std@@@std@@PEAX@1@$$QEA_N@Z
	??$?0PEAU?$_Tree_node@U?$pair@$$CBDUtile_info@map@kmint@@@std@@PEAX@std@@_N$0A@@?$pair@PEAU?$_Tree_node@U?$pair@$$CBDUtile_info@map@kmint@@@std@@PEAX@std@@_N@std@@QEAA@$$QEAPEAU?$_Tree_node@U?$pair@$$CBDUtile_info@map@kmint@@@std@@PEAX@1@$$QEA_N@Z
	??$?0PEAU?$_Tree_node@U?$pair@$$CBV?$basic_string@DU?$char_traits@D@std@@V?$allocator@D@2@@std@@Vtexture@sdl@ui@kmint@@@std@@PEAX@std@@_N$0A@@?$pair@PEAU?$_Tree_node@U?$pair@$$CBV?$basic_string@DU?$char_traits@D@std@@V?$allocator@D@2@@std@@Vtexture@sdl@ui@kmint@@@std@@PEAX@std@@_N@std@@QEAA@$$QEAPEAU?$_Tree_node@U?$pair@$$CBV?$basic_string@DU?$char_traits@D@std@@V?$allocator@D@2@@std@@Vtexture@sdl@ui@kmint@@@std@@PEAX@1@$$QEA_N@Z
	??$?0PEAV?$basic_node@Umap_node_info@map@kmint@@@graph@kmint@@@?$allocator@U_Container_proxy@std@@@std@@QEAA@AEBV?$allocator@PEAV?$basic_node@Umap_node_info@map@kmint@@@graph@kmint@@@1@@Z
	??$?0U?$_List_node@U?$pair@$$CBDV?$vector@PEAV?$basic_node@Umap_node_info@map@kmint@@@graph@kmint@@V?$allocator@PEAV?$basic_node@Umap_node_info@map@kmint@@@graph@kmint@@@std@@@std@@@std@@PEAX@std@@@?$allocator@U_Container_proxy@std@@@std@@QEAA@AEBV?$allocator@U?$_List_node@U?$pair@$$CBDV?$vector@PEAV?$basic_node@Umap_node_info@map@kmint@@@graph@kmint@@V?$allocator@PEAV?$basic_node@Umap_node_info@map@kmint@@@graph@kmint@@@std@@@std@@@std@@PEAX@std@@@1@@Z
	??$?0U?$_Tree_node@U?$pair@$$CBDUtile_info@map@kmint@@@std@@PEAX@std@@@?$allocator@U_Container_proxy@std@@@std@@QEAA@AEBV?$allocator@U?$_Tree_node@U?$pair@$$CBDUtile_info@map@kmint@@@std@@PEAX@std@@@1@@Z
	??$?0U?$_Tree_node@U?$pair@$$CBV?$basic_string@DU?$char_traits@D@std@@V?$allocator@D@2@@std@@Vtexture@sdl@ui@kmint@@@std@@PEAX@std@@@?$allocator@U_Container_proxy@std@@@std@@QEAA@AEBV?$allocator@U?$_Tree_node@U?$pair@$$CBV?$basic_string@DU?$char_traits@D@std@@V?$allocator@D@2@@std@@Vtexture@sdl@ui@kmint@@@std@@PEAX@std@@@1@@Z
	??$?0U?$default_delete@Uimpl@frame@ui@kmint@@@std@@$0A@@?$unique_ptr@Uimpl@frame@ui@kmint@@U?$default_delete@Uimpl@frame@ui@kmint@@@std@@@std@@QEAA@$$QEAV01@@Z
	??$?0U?$default_delete@Uimpl@frame@ui@kmint@@@std@@$0A@@?$unique_ptr@Uimpl@frame@ui@kmint@@U?$default_delete@Uimpl@frame@ui@kmint@@@std@@@std@@QEAA@PEAUimpl@frame@ui@kmint@@@Z
	??$?0U?$default_delete@Uimpl@frame@ui@kmint@@@std@@PEAUimpl@frame@ui@kmint@@@?$_Compressed_pair@U?$default_delete@Uimpl@frame@ui@kmint@@@std@@PEAUimpl@frame@ui@kmint@@$00@std@@QEAA@U_One_then_variadic_args_t@1@$$QEAU?$default_delete@Uimpl@frame@ui@kmint@@@1@$$QEAPEAUimpl@frame@ui@kmint@@@Z
	??$?0U?$default_delete@V?$basic_edge@Umap_node_info@map@kmint@@@graph@kmint@@@std@@$0A@@?$unique_ptr@V?$basic_edge@Umap_node_info@map@kmint@@@graph@kmint@@U?$default_delete@V?$basic_edge@Umap_node_info@map@kmint@@@graph@kmint@@@std@@@std@@QEAA@$$QEAV01@@Z
	??$?0U?$default_delete@V?$basic_edge@Umap_node_info@map@kmint@@@graph@kmint@@@std@@$0A@@?$unique_ptr@V?$basic_edge@Umap_node_info@map@kmint@@@graph@kmint@@U?$default_delete@V?$basic_edge@Umap_node_info@map@kmint@@@graph@kmint@@@std@@@std@@QEAA@PEAV?$basic_edge@Umap_node_info@map@kmint@@@graph@kmint@@@Z
	??$?0U?$default_delete@V?$basic_edge@Umap_node_info@map@kmint@@@graph@kmint@@@std@@PEAV?$basic_edge@Umap_node_info@map@kmint@@@graph@kmint@@@?$_Compressed_pair@U?$default_delete@V?$basic_edge@Umap_node_info@map@kmint@@@graph@kmint@@@std@@PEAV?$basic_edge@Umap_node_info@map@kmint@@@graph@kmint@@$00@std@@QEAA@U_One_then_variadic_args_t@1@$$QEAU?$default_delete@V?$basic_edge@Umap_node_info@map@kmint@@@graph@kmint@@@1@$$QEAPEAV?$basic_edge@Umap_node_info@map@kmint@@@graph@kmint@@@Z
	??$?0U?$default_delete@V?$basic_edge@Uno_node_info@graph@kmint@@@graph@kmint@@@std@@$0A@@?$unique_ptr@V?$basic_edge@Uno_node_info@graph@kmint@@@graph@kmint@@U?$default_delete@V?$basic_edge@Uno_node_info@graph@kmint@@@graph@kmint@@@std@@@std@@QEAA@$$QEAV01@@Z
	??$?0U?$default_delete@V?$basic_edge@Uno_node_info@graph@kmint@@@graph@kmint@@@std@@$0A@@?$unique_ptr@V?$basic_edge@Uno_node_info@graph@kmint@@@graph@kmint@@U?$default_delete@V?$basic_edge@Uno_node_info@graph@kmint@@@graph@kmint@@@std@@@std@@QEAA@PEAV?$basic_edge@Uno_node_info@graph@kmint@@@graph@kmint@@@Z
	??$?0U?$default_delete@V?$basic_edge@Uno_node_info@graph@kmint@@@graph@kmint@@@std@@PEAV?$basic_edge@Uno_node_info@graph@kmint@@@graph@kmint@@@?$_Compressed_pair@U?$default_delete@V?$basic_edge@Uno_node_info@graph@kmint@@@graph@kmint@@@std@@PEAV?$basic_edge@Uno_node_info@graph@kmint@@@graph@kmint@@$00@std@@QEAA@U_One_then_variadic_args_t@1@$$QEAU?$default_delete@V?$basic_edge@Uno_node_info@graph@kmint@@@graph@kmint@@@1@$$QEAPEAV?$basic_edge@Uno_node_info@graph@kmint@@@graph@kmint@@@Z
	??$?0U?$default_delete@V?$basic_node@Umap_node_info@map@kmint@@@graph@kmint@@@std@@$0A@@?$unique_ptr@V?$basic_node@Umap_node_info@map@kmint@@@graph@kmint@@U?$default_delete@V?$basic_node@Umap_node_info@map@kmint@@@graph@kmint@@@std@@@std@@QEAA@$$QEAV01@@Z
	??$?0U?$default_delete@V?$basic_node@Umap_node_info@map@kmint@@@graph@kmint@@@std@@$0A@@?$unique_ptr@V?$basic_node@Umap_node_info@map@kmint@@@graph@kmint@@U?$default_delete@V?$basic_node@Umap_node_info@map@kmint@@@graph@kmint@@@std@@@std@@QEAA@PEAV?$basic_node@Umap_node_info@map@kmint@@@graph@kmint@@@Z
	??$?0U?$default_delete@V?$basic_node@Umap_node_info@map@kmint@@@graph@kmint@@@std@@PEAV?$basic_node@Umap_node_info@map@kmint@@@graph@kmint@@@?$_Compressed_pair@U?$default_delete@V?$basic_node@Umap_node_info@map@kmint@@@graph@kmint@@@std@@PEAV?$basic_node@Umap_node_info@map@kmint@@@graph@kmint@@$00@std@@QEAA@U_One_then_variadic_args_t@1@$$QEAU?$default_delete@V?$basic_node@Umap_node_info@map@kmint@@@graph@kmint@@@1@$$QEAPEAV?$basic_node@Umap_node_info@map@kmint@@@graph@kmint@@@Z
	??$?0U?$default_delete@V?$basic_node@Uno_node_info@graph@kmint@@@graph@kmint@@@std@@$0A@@?$unique_ptr@V?$basic_node@Uno_node_info@graph@kmint@@@graph@kmint@@U?$default_delete@V?$basic_node@Uno_node_info@graph@kmint@@@graph@kmint@@@std@@@std@@QEAA@$$QEAV01@@Z
	??$?0U?$default_delete@V?$basic_node@Uno_node_info@graph@kmint@@@graph@kmint@@@std@@$0A@@?$unique_ptr@V?$basic_node@Uno_node_info@graph@kmint@@@graph@kmint@@U?$default_delete@V?$basic_node@Uno_node_info@graph@kmint@@@graph@kmint@@@std@@@std@@QEAA@PEAV?$basic_node@Uno_node_info@graph@kmint@@@graph@kmint@@@Z
	??$?0U?$default_delete@V?$basic_node@Uno_node_info@graph@kmint@@@graph@kmint@@@std@@PEAV?$basic_node@Uno_node_info@graph@kmint@@@graph@kmint@@@?$_Compressed_pair@U?$default_delete@V?$basic_node@Uno_node_info@graph@kmint@@@graph@kmint@@@std@@PEAV?$basic_node@Uno_node_info@graph@kmint@@@graph@kmint@@$00@std@@QEAA@U_One_then_variadic_args_t@1@$$QEAU?$default_delete@V?$basic_node@Uno_node_info@graph@kmint@@@graph@kmint@@@1@$$QEAPEAV?$basic_node@Uno_node_info@graph@kmint@@@graph@kmint@@@Z
	??$?0U?$default_delete@V?$quad_tree@$03@play@kmint@@@std@@$0A@@?$unique_ptr@V?$quad_tree@$03@play@kmint@@U?$default_delete@V?$quad_tree@$03@play@kmint@@@std@@@std@@QEAA@$$QEAV01@@Z
	??$?0U?$default_delete@V?$quad_tree@$03@play@kmint@@@std@@$0A@@?$unique_ptr@V?$quad_tree@$03@play@kmint@@U?$default_delete@V?$quad_tree@$03@play@kmint@@@std@@@std@@QEAA@PEAV?$quad_tree@$03@play@kmint@@@Z
	??$?0U?$default_delete@V?$quad_tree@$03@play@kmint@@@std@@$0A@@?$unique_ptr@V?$quad_tree@$03@play@kmint@@U?$default_delete@V?$quad_tree@$03@play@kmint@@@std@@@std@@QEAA@XZ
	??$?0U?$default_delete@V?$quad_tree@$03@play@kmint@@@std@@PEAV?$quad_tree@$03@play@kmint@@@?$_Compressed_pair@U?$default_delete@V?$quad_tree@$03@play@kmint@@@std@@PEAV?$quad_tree@$03@play@kmint@@$00@std@@QEAA@U_One_then_variadic_args_t@1@$$QEAU?$default_delete@V?$quad_tree@$03@play@kmint@@@1@$$QEAPEAV?$quad_tree@$03@play@kmint@@@Z
	??$?0U?$default_delete@V_Facet_base@std@@@std@@$0A@@?$unique_ptr@V_Facet_base@std@@U?$default_delete@V_Facet_base@std@@@2@@std@@QEAA@PEAV_Facet_base@1@@Z
	??$?0U?$default_delete@Vimpl@app@ui@kmint@@@std@@$0A@@?$unique_ptr@Vimpl@app@ui@kmint@@U?$default_delete@Vimpl@app@ui@kmint@@@std@@@std@@QEAA@$$QEAV01@@Z
	??$?0U?$default_delete@Vimpl@app@ui@kmint@@@std@@$0A@@?$unique_ptr@Vimpl@app@ui@kmint@@U?$default_delete@Vimpl@app@ui@kmint@@@std@@@std@@QEAA@PEAVimpl@app@ui@kmint@@@Z
	??$?0U?$default_delete@Vimpl@app@ui@kmint@@@std@@PEAVimpl@app@ui@kmint@@@?$_Compressed_pair@U?$default_delete@Vimpl@app@ui@kmint@@@std@@PEAVimpl@app@ui@kmint@@$00@std@@QEAA@U_One_then_variadic_args_t@1@$$QEAU?$default_delete@Vimpl@app@ui@kmint@@@1@$$QEAPEAVimpl@app@ui@kmint@@@Z
	??$?0U?$default_delete@Vimpl@window@ui@kmint@@@std@@$0A@@?$unique_ptr@Vimpl@window@ui@kmint@@U?$default_delete@Vimpl@window@ui@kmint@@@std@@@std@@QEAA@$$QEAV01@@Z
	??$?0U?$default_delete@Vimpl@window@ui@kmint@@@std@@$0A@@?$unique_ptr@Vimpl@window@ui@kmint@@U?$default_delete@Vimpl@window@ui@kmint@@@std@@@std@@QEAA@PEAVimpl@window@ui@kmint@@@Z
	??$?0U?$default_delete@Vimpl@window@ui@kmint@@@std@@PEAVimpl@window@ui@kmint@@@?$_Compressed_pair@U?$default_delete@Vimpl@window@ui@kmint@@@std@@PEAVimpl@window@ui@kmint@@$00@std@@QEAA@U_One_then_variadic_args_t@1@$$QEAU?$default_delete@Vimpl@window@ui@kmint@@@1@$$QEAPEAVimpl@window@ui@kmint@@@Z
	??$?0U?$less@D@std@@U_One_then_variadic_args_t@1@V?$allocator@U?$_Tree_node@U?$pair@$$CBDUtile_info@map@kmint@@@std@@PEAX@std@@@1@@?$_Compressed_pair@U?$less@D@std@@V?$_Compressed_pair@V?$allocator@U?$_Tree_node@U?$pair@$$CBDUtile_info@map@kmint@@@std@@PEAX@std@@@std@@V?$_Tree_val@U?$_Tree_simple_types@U?$pair@$$CBDUtile_info@map@kmint@@@std@@@std@@@2@$00@2@$00@std@@QEAA@U_One_then_variadic_args_t@1@$$QEAU?$less@D@1@$$QEAU21@$$QEAV?$allocator@U?$_Tree_node@U?$pair@$$CBDUtile_info@map@kmint@@@std@@PEAX@std@@@1@@Z
	??$?0U?$pair@$$CBDV?$vector@PEAV?$basic_node@Umap_node_info@map@kmint@@@graph@kmint@@V?$allocator@PEAV?$basic_node@Umap_node_info@map@kmint@@@graph@kmint@@@std@@@std@@@std@@@?$allocator@U?$_List_node@U?$pair@$$CBDV?$vector@PEAV?$basic_node@Umap_node_info@map@kmint@@@graph@kmint@@V?$allocator@PEAV?$basic_node@Umap_node_info@map@kmint@@@graph@kmint@@@std@@@std@@@std@@PEAX@std@@@std@@QEAA@AEBV?$allocator@U?$pair@$$CBDV?$vector@PEAV?$basic_node@Umap_node_info@map@kmint@@@graph@kmint@@V?$allocator@PEAV?$basic_node@Umap_node_info@map@kmint@@@graph@kmint@@@std@@@std@@@std@@@1@@Z
	??$?0U?$pair@$$CBDV?$vector@PEAV?$basic_node@Umap_node_info@map@kmint@@@graph@kmint@@V?$allocator@PEAV?$basic_node@Umap_node_info@map@kmint@@@graph@kmint@@@std@@@std@@@std@@@?$allocator@V?$_List_unchecked_iterator@V?$_List_val@U?$_List_simple_types@U?$pair@$$CBDV?$vector@PEAV?$basic_node@Umap_node_info@map@kmint@@@graph@kmint@@V?$allocator@PEAV?$basic_node@Umap_node_info@map@kmint@@@graph@kmint@@@std@@@std@@@std@@@std@@@std@@@std@@@std@@QEAA@AEBV?$allocator@U?$pair@$$CBDV?$vector@PEAV?$basic_node@Umap_node_info@map@kmint@@@graph@kmint@@V?$allocator@PEAV?$basic_node@Umap_node_info@map@kmint@@@graph@kmint@@@std@@@std@@@std@@@1@@Z
	??$?0U?$pair@V?$basic_string@DU?$char_traits@D@std@@V?$allocator@D@2@@std@@Vtexture@sdl@ui@kmint@@@std@@@?$_Tree_temp_node@V?$allocator@U?$_Tree_node@U?$pair@$$CBV?$basic_string@DU?$char_traits@D@std@@V?$allocator@D@2@@std@@Vtexture@sdl@ui@kmint@@@std@@PEAX@std@@@std@@@std@@QEAA@AEAV?$allocator@U?$_Tree_node@U?$pair@$$CBV?$basic_string@DU?$char_traits@D@std@@V?$allocator@D@2@@std@@Vtexture@sdl@ui@kmint@@@std@@PEAX@std@@@1@PEAU?$_Tree_node@U?$pair@$$CBV?$basic_string@DU?$char_traits@D@std@@V?$allocator@D@2@@std@@Vtexture@sdl@ui@kmint@@@std@@PEAX@1@$$QEAU?$pair@V?$basic_string@DU?$char_traits@D@std@@V?$allocator@D@2@@std@@Vtexture@sdl@ui@kmint@@@1@@Z
	??$?0U_Exact_args_t@std@@$0A@@?$tuple@$$V@std@@QEAA@U_Exact_args_t@1@@Z
	??$?0U_Exact_args_t@std@@AEBD$$V$0A@@?$tuple@AEBD@std@@QEAA@U_Exact_args_t@1@AEBD@Z
	??$?0U_Zero_then_variadic_args_t@std@@M@?$_Compressed_pair@U?$hash@D@std@@V?$_Compressed_pair@U?$equal_to@D@std@@M$00@2@$00@std@@QEAA@U_Zero_then_variadic_args_t@1@$$QEAU21@$$QEAM@Z
	??$?0Ufree@?$quad_tree@$03@play@kmint@@$0A@@?$variant@Ufree@?$quad_tree@$03@play@kmint@@Usaturated@234@@std@@QEAA@$$QEAUfree@?$quad_tree@$03@play@kmint@@@Z
	??$?0Ufree@?$quad_tree@$03@play@kmint@@@?$_Variant_storage_@$0A@Ufree@?$quad_tree@$03@play@kmint@@Usaturated@234@@std@@QEAA@U?$integral_constant@_K$0A@@1@$$QEAUfree@?$quad_tree@$03@play@kmint@@@Z
	??$?0Usaturated@?$quad_tree@$03@play@kmint@@$0A@@?$optional@Usaturated@?$quad_tree@$03@play@kmint@@@std@@QEAA@$$QEAUsaturated@?$quad_tree@$03@play@kmint@@@Z
	??$?0Usaturated@?$quad_tree@$03@play@kmint@@@?$_Deleted_copy_assign@U?$_Optional_construct_base@Usaturated@?$quad_tree@$03@play@kmint@@@std@@Usaturated@?$quad_tree@$03@play@kmint@@@std@@QEAA@Uin_place_t@1@$$QEAUsaturated@?$quad_tree@$03@play@kmint@@@Z
	??$?0Usaturated@?$quad_tree@$03@play@kmint@@@?$_Non_trivial_move@U?$_Optional_construct_base@Usaturated@?$quad_tree@$03@play@kmint@@@std@@Usaturated@?$quad_tree@$03@play@kmint@@@std@@QEAA@Uin_place_t@1@$$QEAUsaturated@?$quad_tree@$03@play@kmint@@@Z
	??$?0Usaturated@?$quad_tree@$03@play@kmint@@@?$_Non_trivial_move_assign@U?$_Optional_construct_base@Usaturated@?$quad_tree@$03@play@kmint@@@std@@Usaturated@?$quad_tree@$03@play@kmint@@@std@@QEAA@Uin_place_t@1@$$QEAUsaturated@?$quad_tree@$03@play@kmint@@@Z
	??$?0Usaturated@?$quad_tree@$03@play@kmint@@@?$_Optional_construct_base@Usaturated@?$quad_tree@$03@play@kmint@@@std@@QEAA@Uin_place_t@1@$$QEAUsaturated@?$quad_tree@$03@play@kmint@@@Z
	??$?0Usaturated@?$quad_tree@$03@play@kmint@@@?$_Optional_destruct_base@Usaturated@?$quad_tree@$03@play@kmint@@$0A@@std@@QEAA@Uin_place_t@1@$$QEAUsaturated@?$quad_tree@$03@play@kmint@@@Z
	??$?0V?$_List_unchecked_iterator@V?$_List_val@U?$_List_simple_types@U?$pair@$$CBDV?$vector@PEAV?$basic_node@Umap_node_info@map@kmint@@@graph@kmint@@V?$allocator@PEAV?$basic_node@Umap_node_info@map@kmint@@@graph@kmint@@@std@@@std@@@std@@@std@@@std@@@std@@@?$allocator@U_Container_proxy@std@@@std@@QEAA@AEBV?$allocator@V?$_List_unchecked_iterator@V?$_List_val@U?$_List_simple_types@U?$pair@$$CBDV?$vector@PEAV?$basic_node@Umap_node_info@map@kmint@@@graph@kmint@@V?$allocator@PEAV?$basic_node@Umap_node_info@map@kmint@@@graph@kmint@@@std@@@std@@@std@@@std@@@std@@@std@@@1@@Z
	??$?0V?$_Tree_iterator@V?$_Tree_val@U?$_Tree_simple_types@U?$pair@$$CBDUtile_info@map@kmint@@@std@@@std@@@std@@@std@@AEB_N$0A@@?$pair@V?$_Tree_iterator@V?$_Tree_val@U?$_Tree_simple_types@U?$pair@$$CBDUtile_info@map@kmint@@@std@@@std@@@std@@@std@@_N@std@@QEAA@$$QEAV?$_Tree_iterator@V?$_Tree_val@U?$_Tree_simple_types@U?$pair@$$CBDUtile_info@map@kmint@@@std@@@std@@@std@@@1@AEB_N@Z
	??$?0V?$_Tree_iterator@V?$_Tree_val@U?$_Tree_simple_types@U?$pair@$$CBV?$basic_string@DU?$char_traits@D@std@@V?$allocator@D@2@@std@@Vtexture@sdl@ui@kmint@@@std@@@std@@@std@@@std@@AEB_N$0A@@?$pair@V?$_Tree_iterator@V?$_Tree_val@U?$_Tree_simple_types@U?$pair@$$CBV?$basic_string@DU?$char_traits@D@std@@V?$allocator@D@2@@std@@Vtexture@sdl@ui@kmint@@@std@@@std@@@std@@@std@@_N@std@@QEAA@$$QEAV?$_Tree_iterator@V?$_Tree_val@U?$_Tree_simple_types@U?$pair@$$CBV?$basic_string@DU?$char_traits@D@std@@V?$allocator@D@2@@std@@Vtexture@sdl@ui@kmint@@@std@@@std@@@std@@@1@AEB_N@Z
	??$?0V?$allocator@D@std@@$$V@?$_Compressed_pair@V?$allocator@D@std@@V?$_String_val@U?$_Simple_types@D@std@@@2@$00@std@@QEAA@U_One_then_variadic_args_t@1@$$QEAV?$allocator@D@1@@Z
	??$?0V?$allocator@D@std@@$$V@?$_Compressed_pair@V?$allocator@D@std@@V?$_Vector_val@U?$_Simple_types@D@std@@@2@$00@std@@QEAA@U_One_then_variadic_args_t@1@$$QEAV?$allocator@D@1@@Z
	??$?0V?$allocator@U?$_Tree_node@U?$pair@$$CBDUtile_info@map@kmint@@@std@@PEAX@std@@@std@@$$V@?$_Compressed_pair@V?$allocator@U?$_Tree_node@U?$pair@$$CBDUtile_info@map@kmint@@@std@@PEAX@std@@@std@@V?$_Tree_val@U?$_Tree_simple_types@U?$pair@$$CBDUtile_info@map@kmint@@@std@@@std@@@2@$00@std@@QEAA@U_One_then_variadic_args_t@1@$$QEAV?$allocator@U?$_Tree_node@U?$pair@$$CBDUtile_info@map@kmint@@@std@@PEAX@std@@@1@@Z
	??$?0V?$allocator@U?$_Tree_node@U?$pair@$$CBDUtile_info@map@kmint@@@std@@PEAX@std@@@std@@@?$_Tree@V?$_Tmap_traits@DUtile_info@map@kmint@@U?$less@D@std@@V?$allocator@U?$pair@$$CBDUtile_info@map@kmint@@@std@@@5@$0A@@std@@@std@@QEAA@AEBV01@$$QEAV?$allocator@U?$_Tree_node@U?$pair@$$CBDUtile_info@map@kmint@@@std@@PEAX@std@@@1@@Z
	??$?0V?$allocator@V?$unique_ptr@V?$basic_node@Umap_node_info@map@kmint@@@graph@kmint@@U?$default_delete@V?$basic_node@Umap_node_info@map@kmint@@@graph@kmint@@@std@@@std@@@std@@$$V@?$_Compressed_pair@V?$allocator@V?$unique_ptr@V?$basic_node@Umap_node_info@map@kmint@@@graph@kmint@@U?$default_delete@V?$basic_node@Umap_node_info@map@kmint@@@graph@kmint@@@std@@@std@@@std@@V?$_Vector_val@U?$_Simple_types@V?$unique_ptr@V?$basic_node@Umap_node_info@map@kmint@@@graph@kmint@@U?$default_delete@V?$basic_node@Umap_node_info@map@kmint@@@graph@kmint@@@std@@@std@@@std@@@2@$00@std@@QEAA@U_One_then_variadic_args_t@1@$$QEAV?$allocator@V?$unique_ptr@V?$basic_node@Umap_node_info@map@kmint@@@graph@kmint@@U?$default_delete@V?$basic_node@Umap_node_info@map@kmint@@@graph@kmint@@@std@@@std@@@1@@Z
	??$?0V?$allocator@V?$unique_ptr@V?$basic_node@Uno_node_info@graph@kmint@@@graph@kmint@@U?$default_delete@V?$basic_node@Uno_node_info@graph@kmint@@@graph@kmint@@@std@@@std@@@std@@$$V@?$_Compressed_pair@V?$allocator@V?$unique_ptr@V?$basic_node@Uno_node_info@graph@kmint@@@graph@kmint@@U?$default_delete@V?$basic_node@Uno_node_info@graph@kmint@@@graph@kmint@@@std@@@std@@@std@@V?$_Vector_val@U?$_Simple_types@V?$unique_ptr@V?$basic_node@Uno_node_info@graph@kmint@@@graph@kmint@@U?$default_delete@V?$basic_node@Uno_node_info@graph@kmint@@@graph@kmint@@@std@@@std@@@std@@@2@$00@std@@QEAA@U_One_then_variadic_args_t@1@$$QEAV?$allocator@V?$unique_ptr@V?$basic_node@Uno_node_info@graph@kmint@@@graph@kmint@@U?$default_delete@V?$basic_node@Uno_node_info@graph@kmint@@@graph@kmint@@@std@@@std@@@1@@Z
	??$?0V?$basic_string@DU?$char_traits@D@std@@V?$allocator@D@2@@std@@Vtexture@sdl@ui@kmint@@$0A@@?$pair@$$CBV?$basic_string@DU?$char_traits@D@std@@V?$allocator@D@2@@std@@Vtexture@sdl@ui@kmint@@@std@@QEAA@$$QEAU?$pair@V?$basic_string@DU?$char_traits@D@std@@V?$allocator@D@2@@std@@Vtexture@sdl@ui@kmint@@@1@@Z
	??$?0V?$destroyer@USDL_Renderer@@@sdl@ui@kmint@@$0A@@?$unique_ptr@USDL_Renderer@@V?$destroyer@USDL_Renderer@@@sdl@ui@kmint@@@std@@QEAA@PEAUSDL_Renderer@@@Z
	??$?0V?$destroyer@USDL_Surface@@@sdl@ui@kmint@@$0A@@?$unique_ptr@USDL_Surface@@V?$destroyer@USDL_Surface@@@sdl@ui@kmint@@@std@@QEAA@PEAUSDL_Surface@@@Z
	??$?0V?$destroyer@USDL_Texture@@@sdl@ui@kmint@@$0A@@?$unique_ptr@USDL_Texture@@V?$destroyer@USDL_Texture@@@sdl@ui@kmint@@@std@@QEAA@$$QEAV01@@Z
	??$?0V?$destroyer@USDL_Texture@@@sdl@ui@kmint@@$0A@@?$unique_ptr@USDL_Texture@@V?$destroyer@USDL_Texture@@@sdl@ui@kmint@@@std@@QEAA@PEAUSDL_Texture@@@Z
	??$?0V?$destroyer@USDL_Texture@@@sdl@ui@kmint@@PEAUSDL_Texture@@@?$_Compressed_pair@V?$destroyer@USDL_Texture@@@sdl@ui@kmint@@PEAUSDL_Texture@@$00@std@@QEAA@U_One_then_variadic_args_t@1@$$QEAV?$destroyer@USDL_Texture@@@sdl@ui@kmint@@$$QEAPEAUSDL_Texture@@@Z
	??$?0V?$destroyer@USDL_Window@@@sdl@ui@kmint@@$0A@@?$unique_ptr@USDL_Window@@V?$destroyer@USDL_Window@@@sdl@ui@kmint@@@std@@QEAA@PEAUSDL_Window@@@Z
	??$?0V?$tuple@AEBD@std@@V?$tuple@$$V@1@$0A@$$Z$S@?$pair@$$CBDV?$vector@PEAV?$basic_node@Umap_node_info@map@kmint@@@graph@kmint@@V?$allocator@PEAV?$basic_node@Umap_node_info@map@kmint@@@graph@kmint@@@std@@@std@@@std@@QEAA@AEAV?$tuple@AEBD@1@AEAV?$tuple@$$V@1@U?$integer_sequence@_K$0A@@1@U?$integer_sequence@_K$S@1@@Z
	??$?0V?$unique_ptr@V?$basic_edge@Umap_node_info@map@kmint@@@graph@kmint@@U?$default_delete@V?$basic_edge@Umap_node_info@map@kmint@@@graph@kmint@@@std@@@std@@@?$allocator@U_Container_proxy@std@@@std@@QEAA@AEBV?$allocator@V?$unique_ptr@V?$basic_edge@Umap_node_info@map@kmint@@@graph@kmint@@U?$default_delete@V?$basic_edge@Umap_node_info@map@kmint@@@graph@kmint@@@std@@@std@@@1@@Z
	??$?0V?$unique_ptr@V?$basic_edge@Uno_node_info@graph@kmint@@@graph@kmint@@U?$default_delete@V?$basic_edge@Uno_node_info@graph@kmint@@@graph@kmint@@@std@@@std@@@?$allocator@U_Container_proxy@std@@@std@@QEAA@AEBV?$allocator@V?$unique_ptr@V?$basic_edge@Uno_node_info@graph@kmint@@@graph@kmint@@U?$default_delete@V?$basic_edge@Uno_node_info@graph@kmint@@@graph@kmint@@@std@@@std@@@1@@Z
	??$?0V?$unique_ptr@V?$basic_node@Umap_node_info@map@kmint@@@graph@kmint@@U?$default_delete@V?$basic_node@Umap_node_info@map@kmint@@@graph@kmint@@@std@@@std@@@?$allocator@U_Container_proxy@std@@@std@@QEAA@AEBV?$allocator@V?$unique_ptr@V?$basic_node@Umap_node_info@map@kmint@@@graph@kmint@@U?$default_delete@V?$basic_node@Umap_node_info@map@kmint@@@graph@kmint@@@std@@@std@@@1@@Z
	??$?0V?$unique_ptr@V?$basic_node@Uno_node_info@graph@kmint@@@graph@kmint@@U?$default_delete@V?$basic_node@Uno_node_info@graph@kmint@@@graph@kmint@@@std@@@std@@@?$allocator@U_Container_proxy@std@@@std@@QEAA@AEBV?$allocator@V?$unique_ptr@V?$basic_node@Uno_node_info@graph@kmint@@@graph@kmint@@U?$default_delete@V?$basic_node@Uno_node_info@graph@kmint@@@graph@kmint@@@std@@@std@@@1@@Z
	??$?4U?$default_delete@Uimpl@frame@ui@kmint@@@std@@$0A@@?$unique_ptr@Uimpl@frame@ui@kmint@@U?$default_delete@Uimpl@frame@ui@kmint@@@std@@@std@@QEAAAEAV01@$$QEAV01@@Z
	??$?4U?$default_delete@V?$quad_tree@$03@play@kmint@@@std@@$0A@@?$unique_ptr@V?$quad_tree@$03@play@kmint@@U?$default_delete@V?$quad_tree@$03@play@kmint@@@std@@@std@@QEAAAEAV01@$$QEAV01@@Z
	??$?4U?$default_delete@Vactor@play@kmint@@@std@@$0A@@?$unique_ptr@Vactor@play@kmint@@U?$default_delete@Vactor@play@kmint@@@std@@@std@@QEAAAEAV01@$$QEAV01@@Z
	??$?4U?$default_delete@Vimpl@app@ui@kmint@@@std@@$0A@@?$unique_ptr@Vimpl@app@ui@kmint@@U?$default_delete@Vimpl@app@ui@kmint@@@std@@@std@@QEAAAEAV01@$$QEAV01@@Z
	??$?4U?$default_delete@Vimpl@window@ui@kmint@@@std@@$0A@@?$unique_ptr@Vimpl@window@ui@kmint@@U?$default_delete@Vimpl@window@ui@kmint@@@std@@@std@@QEAAAEAV01@$$QEAV01@@Z
	??$?4Usaturated@?$quad_tree@$03@play@kmint@@$0A@@?$variant@Ufree@?$quad_tree@$03@play@kmint@@Usaturated@234@@std@@QEAAAEAV01@$$QEAUsaturated@?$quad_tree@$03@play@kmint@@@Z
	??$?5DU?$char_traits@D@std@@@std@@YAAEAV?$basic_istream@DU?$char_traits@D@std@@@0@AEAV10@AEAD@Z
	??$?5DU?$char_traits@D@std@@V?$allocator@D@1@@std@@YAAEAV?$basic_istream@DU?$char_traits@D@std@@@0@$$QEAV10@AEAV?$basic_string@DU?$char_traits@D@std@@V?$allocator@D@2@@0@@Z
	??$?5DU?$char_traits@D@std@@V?$allocator@D@1@@std@@YAAEAV?$basic_istream@DU?$char_traits@D@std@@@0@AEAV10@AEAV?$basic_string@DU?$char_traits@D@std@@V?$allocator@D@2@@0@@Z
	??$?5H@math@kmint@@YAAEAV?$basic_istream@DU?$char_traits@D@std@@@std@@AEAV23@AEAV?$basic_size@H@01@@Z
	??$?5M@math@kmint@@YAAEAV?$basic_istream@DU?$char_traits@D@std@@@std@@AEAV23@AEAV?$basic_vector2d@M@01@@Z
	??$?8DDU?$char_traits@D@std@@_J@std@@YA_NAEBV?$istream_iterator@DDU?$char_traits@D@std@@_J@0@0@Z
	??$?9DDU?$char_traits@D@std@@_J@std@@YA_NAEBV?$istream_iterator@DDU?$char_traits@D@std@@_J@0@0@Z
	??$?DH@math@kmint@@YA?AV?$basic_size@H@01@V201@H@Z
	??$?HDU?$char_traits@D@std@@V?$allocator@D@1@@std@@YA?AV?$basic_string@DU?$char_traits@D@std@@V?$allocator@D@2@@0@$$QEAV10@QEBD@Z
	??$?HDU?$char_traits@D@std@@V?$allocator@D@1@@std@@YA?AV?$basic_string@DU?$char_traits@D@std@@V?$allocator@D@2@@0@QEBDAEBV10@@Z
	??$?HM@math@kmint@@YA?AV?$basic_vector2d@M@01@V201@0@Z
	??$?MDU?$char_traits@D@std@@V?$allocator@D@1@@std@@YA_NAEBV?$basic_string@DU?$char_traits@D@std@@V?$allocator@D@2@@0@0@Z
	??$?RD@?$_Uhash_compare@DU?$hash@D@std@@U?$equal_to@D@2@@std@@QEBA_KAEBD@Z
	??$?RDD@?$_Uhash_compare@DU?$hash@D@std@@U?$equal_to@D@2@@std@@QEBA_NAEBD0@Z
	??$?RU?$_Tagged@AEAUfree@?$quad_tree@$03@play@kmint@@$0A@@std@@@<lambda_5a0776a30ffab3a3304c68c760f76a39>@@QEBAXU?$_Tagged@AEAUfree@?$quad_tree@$03@play@kmint@@$0A@@std@@@Z
	??$?RU?$_Tagged@AEAUsaturated@?$quad_tree@$03@play@kmint@@$00@std@@@<lambda_5a0776a30ffab3a3304c68c760f76a39>@@QEBAXU?$_Tagged@AEAUsaturated@?$quad_tree@$03@play@kmint@@$00@std@@@Z
	??$?RU?$_Tagged@AEAV?$_Variant_storage_@$0A@Ufree@?$quad_tree@$03@play@kmint@@Usaturated@234@@std@@$0?0@std@@@<lambda_5a0776a30ffab3a3304c68c760f76a39>@@QEBAXU?$_Tagged@AEAV?$_Variant_storage_@$0A@Ufree@?$quad_tree@$03@play@kmint@@Usaturated@234@@std@@$0?0@std@@@Z
	??$?RV?$mersenne_twister_engine@I$0CA@$0CHA@$0BIN@$0BP@$0JJAILANP@$0L@$0PPPPPPPP@$06$0JNCMFGIA@$0P@$0OPMGAAAA@$0BC@$0GMAHIJGF@@std@@@?$uniform_int@H@std@@QEBAHAEAV?$mersenne_twister_engine@I$0CA@$0CHA@$0BIN@$0BP@$0JJAILANP@$0L@$0PPPPPPPP@$06$0JNCMFGIA@$0P@$0OPMGAAAA@$0BC@$0GMAHIJGF@@1@@Z
	??$?RV?$mersenne_twister_engine@I$0CA@$0CHA@$0BIN@$0BP@$0JJAILANP@$0L@$0PPPPPPPP@$06$0JNCMFGIA@$0P@$0OPMGAAAA@$0BC@$0GMAHIJGF@@std@@@?$uniform_real@M@std@@QEBAMAEAV?$mersenne_twister_engine@I$0CA@$0CHA@$0BIN@$0BP@$0JJAILANP@$0L@$0PPPPPPPP@$06$0JNCMFGIA@$0P@$0OPMGAAAA@$0BC@$0GMAHIJGF@@1@@Z
	??$_Adl_verify_range@PEAV?$_List_unchecked_iterator@V?$_List_val@U?$_List_simple_types@U?$pair@$$CBDV?$vector@PEAV?$basic_node@Umap_node_info@map@kmint@@@graph@kmint@@V?$allocator@PEAV?$basic_node@Umap_node_info@map@kmint@@@graph@kmint@@@std@@@std@@@std@@@std@@@std@@@std@@PEAV12@@std@@YAXAEBQEAV?$_List_unchecked_iterator@V?$_List_val@U?$_List_simple_types@U?$pair@$$CBDV?$vector@PEAV?$basic_node@Umap_node_info@map@kmint@@@graph@kmint@@V?$allocator@PEAV?$basic_node@Umap_node_info@map@kmint@@@graph@kmint@@@std@@@std@@@std@@@std@@@std@@@0@0@Z
	??$_Adl_verify_range@PEAV?$unique_ptr@Vactor@play@kmint@@U?$default_delete@Vactor@play@kmint@@@std@@@std@@PEAV12@@std@@YAXAEBQEAV?$unique_ptr@Vactor@play@kmint@@U?$default_delete@Vactor@play@kmint@@@std@@@0@0@Z
	??$_Adl_verify_range@V?$_Vector_iterator@V?$_Vector_val@U?$_Simple_types@V?$unique_ptr@Vactor@play@kmint@@U?$default_delete@Vactor@play@kmint@@@std@@@std@@@std@@@std@@@std@@V12@@std@@YAXAEBV?$_Vector_iterator@V?$_Vector_val@U?$_Simple_types@V?$unique_ptr@Vactor@play@kmint@@U?$default_delete@Vactor@play@kmint@@@std@@@std@@@std@@@std@@@0@0@Z
	??$_Adl_verify_range@V?$istream_iterator@DDU?$char_traits@D@std@@_J@std@@V12@@std@@YAXAEBV?$istream_iterator@DDU?$char_traits@D@std@@_J@0@0@Z
	??$_Alloc_proxy@V?$allocator@U_Container_proxy@std@@@std@@@_Container_base12@std@@QEAAX$$QEAV?$allocator@U_Container_proxy@std@@@1@@Z
	??$_Allocate@$0BA@U_Default_allocate_traits@std@@$0A@@std@@YAPEAX_K@Z
	??$_Allocate_manually_vector_aligned@U_Default_allocate_traits@std@@@std@@YAPEAX_K@Z
	??$_Buyheadnode@V?$allocator@U?$_Tree_node@U?$pair@$$CBDUtile_info@map@kmint@@@std@@PEAX@std@@@std@@@?$_Tree_node@U?$pair@$$CBDUtile_info@map@kmint@@@std@@PEAX@std@@SAPEAU01@AEAV?$allocator@U?$_Tree_node@U?$pair@$$CBDUtile_info@map@kmint@@@std@@PEAX@std@@@1@@Z
	??$_Buyheadnode@V?$allocator@U?$_Tree_node@U?$pair@$$CBV?$basic_string@DU?$char_traits@D@std@@V?$allocator@D@2@@std@@Vtexture@sdl@ui@kmint@@@std@@PEAX@std@@@std@@@?$_Tree_node@U?$pair@$$CBV?$basic_string@DU?$char_traits@D@std@@V?$allocator@D@2@@std@@Vtexture@sdl@ui@kmint@@@std@@PEAX@std@@SAPEAU01@AEAV?$allocator@U?$_Tree_node@U?$pair@$$CBV?$basic_string@DU?$char_traits@D@std@@V?$allocator@D@2@@std@@Vtexture@sdl@ui@kmint@@@std@@PEAX@std@@@1@@Z
	??$_Buynode@AEAU?$pair@$$CBDUtile_info@map@kmint@@@std@@@?$_Tree@V?$_Tmap_traits@DUtile_info@map@kmint@@U?$less@D@std@@V?$allocator@U?$pair@$$CBDUtile_info@map@kmint@@@std@@@5@$0A@@std@@@std@@IEAAPEAU?$_Tree_node@U?$pair@$$CBDUtile_info@map@kmint@@@std@@PEAX@1@AEAU?$pair@$$CBDUtile_info@map@kmint@@@1@@Z
	??$_Buynode@V?$allocator@U?$_Tree_node@U?$pair@$$CBDUtile_info@map@kmint@@@std@@PEAX@std@@@std@@AEAU?$pair@$$CBDUtile_info@map@kmint@@@2@@?$_Tree_node@U?$pair@$$CBDUtile_info@map@kmint@@@std@@PEAX@std@@SAPEAU01@AEAV?$allocator@U?$_Tree_node@U?$pair@$$CBDUtile_info@map@kmint@@@std@@PEAX@std@@@1@PEAU01@AEAU?$pair@$$CBDUtile_info@map@kmint@@@1@@Z
	??$_Call@AEAP6AAEAV?$basic_node@Umap_node_info@map@kmint@@@graph@kmint@@AEBV?$unique_ptr@V?$basic_node@Umap_node_info@map@kmint@@@graph@kmint@@U?$default_delete@V?$basic_node@Umap_node_info@map@kmint@@@graph@kmint@@@std@@@std@@@ZAEAV45@@?$_Invoker_ret@AEAV?$basic_node@Umap_node_info@map@kmint@@@graph@kmint@@$0A@@std@@SAAEAV?$basic_node@Umap_node_info@map@kmint@@@graph@kmint@@AEAP6AAEAV234@AEBV?$unique_ptr@V?$basic_node@Umap_node_info@map@kmint@@@graph@kmint@@U?$default_delete@V?$basic_node@Umap_node_info@map@kmint@@@graph@kmint@@@std@@@1@@ZAEAV51@@Z
	??$_Call@AEAP6AAEAVactor@play@kmint@@AEBV?$unique_ptr@Vactor@play@kmint@@U?$default_delete@Vactor@play@kmint@@@std@@@std@@@ZAEAV45@@?$_Invoker_ret@AEAVactor@play@kmint@@$0A@@std@@SAAEAVactor@play@kmint@@AEAP6AAEAV234@AEBV?$unique_ptr@Vactor@play@kmint@@U?$default_delete@Vactor@play@kmint@@@std@@@1@@ZAEAV51@@Z
	??$_Call@AEAP6AAEBVactor@play@kmint@@AEBV?$unique_ptr@Vactor@play@kmint@@U?$default_delete@Vactor@play@kmint@@@std@@@std@@@ZAEBV45@@?$_Invoker_ret@AEBVactor@play@kmint@@$0A@@std@@SAAEBVactor@play@kmint@@AEAP6AAEBV234@AEBV?$unique_ptr@Vactor@play@kmint@@U?$default_delete@Vactor@play@kmint@@@std@@@1@@Z0@Z
	??$_Construct_in_place@PEADAEBQEAD@std@@YAXAEAPEADAEBQEAD@Z
	??$_Construct_in_place@PEAU?$_List_node@U?$pair@$$CBDV?$vector@PEAV?$basic_node@Umap_node_info@map@kmint@@@graph@kmint@@V?$allocator@PEAV?$basic_node@Umap_node_info@map@kmint@@@graph@kmint@@@std@@@std@@@std@@PEAX@std@@AEAPEAU12@@std@@YAXAEAPEAU?$_List_node@U?$pair@$$CBDV?$vector@PEAV?$basic_node@Umap_node_info@map@kmint@@@graph@kmint@@V?$allocator@PEAV?$basic_node@Umap_node_info@map@kmint@@@graph@kmint@@@std@@@std@@@std@@PEAX@0@0@Z
	??$_Construct_in_place@PEAU?$_List_node@U?$pair@$$CBDV?$vector@PEAV?$basic_node@Umap_node_info@map@kmint@@@graph@kmint@@V?$allocator@PEAV?$basic_node@Umap_node_info@map@kmint@@@graph@kmint@@@std@@@std@@@std@@PEAX@std@@AEBQEAU12@@std@@YAXAEAPEAU?$_List_node@U?$pair@$$CBDV?$vector@PEAV?$basic_node@Umap_node_info@map@kmint@@@graph@kmint@@V?$allocator@PEAV?$basic_node@Umap_node_info@map@kmint@@@graph@kmint@@@std@@@std@@@std@@PEAX@0@AEBQEAU10@@Z
	??$_Construct_in_place@PEAU?$_Tree_node@U?$pair@$$CBDUtile_info@map@kmint@@@std@@PEAX@std@@AEAPEAU12@@std@@YAXAEAPEAU?$_Tree_node@U?$pair@$$CBDUtile_info@map@kmint@@@std@@PEAX@0@0@Z
	??$_Construct_in_place@PEAU?$_Tree_node@U?$pair@$$CBDUtile_info@map@kmint@@@std@@PEAX@std@@AEBQEAU12@@std@@YAXAEAPEAU?$_Tree_node@U?$pair@$$CBDUtile_info@map@kmint@@@std@@PEAX@0@AEBQEAU10@@Z
	??$_Construct_in_place@PEAU?$_Tree_node@U?$pair@$$CBV?$basic_string@DU?$char_traits@D@std@@V?$allocator@D@2@@std@@Vtexture@sdl@ui@kmint@@@std@@PEAX@std@@AEAPEAU12@@std@@YAXAEAPEAU?$_Tree_node@U?$pair@$$CBV?$basic_string@DU?$char_traits@D@std@@V?$allocator@D@2@@std@@Vtexture@sdl@ui@kmint@@@std@@PEAX@0@0@Z
	??$_Construct_in_place@PEAU?$_Tree_node@U?$pair@$$CBV?$basic_string@DU?$char_traits@D@std@@V?$allocator@D@2@@std@@Vtexture@sdl@ui@kmint@@@std@@PEAX@std@@AEBQEAU12@@std@@YAXAEAPEAU?$_Tree_node@U?$pair@$$CBV?$basic_string@DU?$char_traits@D@std@@V?$allocator@D@2@@std@@Vtexture@sdl@ui@kmint@@@std@@PEAX@0@AEBQEAU10@@Z
	??$_Construct_in_place@U_Container_proxy@std@@PEAU_Container_base12@2@@std@@YAXAEAU_Container_proxy@0@$$QEAPEAU_Container_base12@0@@Z
	??$_Construct_in_place@Usaturated@?$quad_tree@$03@play@kmint@@U1234@@std@@YAXAEAUsaturated@?$quad_tree@$03@play@kmint@@$$QEAU1234@@Z
	??$_Construct_in_place@V?$_List_unchecked_iterator@V?$_List_val@U?$_List_simple_types@U?$pair@$$CBDV?$vector@PEAV?$basic_node@Umap_node_info@map@kmint@@@graph@kmint@@V?$allocator@PEAV?$basic_node@Umap_node_info@map@kmint@@@graph@kmint@@@std@@@std@@@std@@@std@@@std@@@std@@AEBV12@@std@@YAXAEAV?$_List_unchecked_iterator@V?$_List_val@U?$_List_simple_types@U?$pair@$$CBDV?$vector@PEAV?$basic_node@Umap_node_info@map@kmint@@@graph@kmint@@V?$allocator@PEAV?$basic_node@Umap_node_info@map@kmint@@@graph@kmint@@@std@@@std@@@std@@@std@@@std@@@0@AEBV10@@Z
	??$_Construct_n_copies_of_ty@H@?$vector@HV?$allocator@H@std@@@std@@AEAAX_KAEBH@Z
	??$_Convert_size@_K@std@@YA_K_K@Z
	??$_Copy@U_Copy_tag@?$_Tree@V?$_Tmap_traits@DUtile_info@map@kmint@@U?$less@D@std@@V?$allocator@U?$pair@$$CBDUtile_info@map@kmint@@@std@@@5@$0A@@std@@@std@@@?$_Tree@V?$_Tmap_traits@DUtile_info@map@kmint@@U?$less@D@std@@V?$allocator@U?$pair@$$CBDUtile_info@map@kmint@@@std@@@5@$0A@@std@@@std@@IEAAXAEBV01@U_Copy_tag@01@@Z
	??$_Copy_memmove@PEADPEAD@std@@YAPEADPEAD00@Z
	??$_Copy_memmove@PEAPEAV?$basic_node@Umap_node_info@map@kmint@@@graph@kmint@@PEAPEAV123@@std@@YAPEAPEAV?$basic_node@Umap_node_info@map@kmint@@@graph@kmint@@PEAPEAV123@00@Z
	??$_Copy_memmove@PEAPEAVactor@play@kmint@@PEAPEAV123@@std@@YAPEAPEAVactor@play@kmint@@PEAPEAV123@00@Z
	??$_Copy_nodes@U_Copy_tag@?$_Tree@V?$_Tmap_traits@DUtile_info@map@kmint@@U?$less@D@std@@V?$allocator@U?$pair@$$CBDUtile_info@map@kmint@@@std@@@5@$0A@@std@@@std@@@?$_Tree@V?$_Tmap_traits@DUtile_info@map@kmint@@U?$less@D@std@@V?$allocator@U?$pair@$$CBDUtile_info@map@kmint@@@std@@@5@$0A@@std@@@std@@IEAAPEAU?$_Tree_node@U?$pair@$$CBDUtile_info@map@kmint@@@std@@PEAX@1@PEAU21@0U_Copy_tag@01@@Z
	??$_Copy_or_move@U?$pair@$$CBDUtile_info@map@kmint@@@std@@U?$integral_constant@_N$0A@@2@@?$_Tree@V?$_Tmap_traits@DUtile_info@map@kmint@@U?$less@D@std@@V?$allocator@U?$pair@$$CBDUtile_info@map@kmint@@@std@@@5@$0A@@std@@@std@@IEAAPEAU?$_Tree_node@U?$pair@$$CBDUtile_info@map@kmint@@@std@@PEAX@1@AEAU?$pair@$$CBDUtile_info@map@kmint@@@1@U_Copy_tag@01@U?$integral_constant@_N$0A@@1@@Z
	??$_Copy_unchecked@V?$istream_iterator@DDU?$char_traits@D@std@@_J@std@@V?$back_insert_iterator@V?$vector@DV?$allocator@D@std@@@std@@@2@@std@@YA?AV?$back_insert_iterator@V?$vector@DV?$allocator@D@std@@@std@@@0@V?$istream_iterator@DDU?$char_traits@D@std@@_J@0@0V10@@Z
	??$_Deallocate@$07$0A@@std@@YAXPEAX_K@Z
	??$_Deallocate@$0BA@$0A@@std@@YAXPEAX_K@Z
	??$_Deallocate_plain@V?$allocator@U_Container_proxy@std@@@std@@@std@@YAXAEAV?$allocator@U_Container_proxy@std@@@0@QEAU_Container_proxy@0@@Z
	??$_Debug_lt_pred@AEBU?$less@D@std@@AEBDAEBD$0A@@std@@YA_NAEBU?$less@D@0@AEBD1@Z
	??$_Debug_lt_pred@AEBU?$less@V?$basic_string@DU?$char_traits@D@std@@V?$allocator@D@2@@std@@@std@@AEBV?$basic_string@DU?$char_traits@D@std@@V?$allocator@D@2@@2@AEBV32@$0A@@std@@YA_NAEBU?$less@V?$basic_string@DU?$char_traits@D@std@@V?$allocator@D@2@@std@@@0@AEBV?$basic_string@DU?$char_traits@D@std@@V?$allocator@D@2@@0@1@Z
	??$_Delete_plain_internal@V?$allocator@U_Container_proxy@std@@@std@@@std@@YAXAEAV?$allocator@U_Container_proxy@std@@@0@QEAU_Container_proxy@0@@Z
	??$_Destroy_in_place@PEAD@std@@YAXAEAPEAD@Z
	??$_Destroy_in_place@PEAU?$_List_node@U?$pair@$$CBDV?$vector@PEAV?$basic_node@Umap_node_info@map@kmint@@@graph@kmint@@V?$allocator@PEAV?$basic_node@Umap_node_info@map@kmint@@@graph@kmint@@@std@@@std@@@std@@PEAX@std@@@std@@YAXAEAPEAU?$_List_node@U?$pair@$$CBDV?$vector@PEAV?$basic_node@Umap_node_info@map@kmint@@@graph@kmint@@V?$allocator@PEAV?$basic_node@Umap_node_info@map@kmint@@@graph@kmint@@@std@@@std@@@std@@PEAX@0@@Z
	??$_Destroy_in_place@PEAU?$_Tree_node@U?$pair@$$CBDUtile_info@map@kmint@@@std@@PEAX@std@@@std@@YAXAEAPEAU?$_Tree_node@U?$pair@$$CBDUtile_info@map@kmint@@@std@@PEAX@0@@Z
	??$_Destroy_in_place@PEAU?$_Tree_node@U?$pair@$$CBV?$basic_string@DU?$char_traits@D@std@@V?$allocator@D@2@@std@@Vtexture@sdl@ui@kmint@@@std@@PEAX@std@@@std@@YAXAEAPEAU?$_Tree_node@U?$pair@$$CBV?$basic_string@DU?$char_traits@D@std@@V?$allocator@D@2@@std@@Vtexture@sdl@ui@kmint@@@std@@PEAX@0@@Z
	??$_Destroy_in_place@Ufree@?$quad_tree@$03@play@kmint@@@std@@YAXAEAUfree@?$quad_tree@$03@play@kmint@@@Z
	??$_Destroy_in_place@Usaturated@?$quad_tree@$03@play@kmint@@@std@@YAXAEAUsaturated@?$quad_tree@$03@play@kmint@@@Z
	??$_Destroy_range@PEAV?$_List_unchecked_iterator@V?$_List_val@U?$_List_simple_types@U?$pair@$$CBDV?$vector@PEAV?$basic_node@Umap_node_info@map@kmint@@@graph@kmint@@V?$allocator@PEAV?$basic_node@Umap_node_info@map@kmint@@@graph@kmint@@@std@@@std@@@std@@@std@@@std@@@std@@@std@@YAXPEAV?$_List_unchecked_iterator@V?$_List_val@U?$_List_simple_types@U?$pair@$$CBDV?$vector@PEAV?$basic_node@Umap_node_info@map@kmint@@@graph@kmint@@V?$allocator@PEAV?$basic_node@Umap_node_info@map@kmint@@@graph@kmint@@@std@@@std@@@std@@@std@@@std@@@0@QEAV10@@Z
	??$_Destroy_range@V?$allocator@D@std@@@std@@YAXPEADQEADAEAV?$allocator@D@0@@Z
	??$_Destroy_range@V?$allocator@H@std@@@std@@YAXPEAHQEAHAEAV?$allocator@H@0@@Z
	??$_Destroy_range@V?$allocator@PEAV?$basic_node@Umap_node_info@map@kmint@@@graph@kmint@@@std@@@std@@YAXPEAPEAV?$basic_node@Umap_node_info@map@kmint@@@graph@kmint@@QEAPEAV123@AEAV?$allocator@PEAV?$basic_node@Umap_node_info@map@kmint@@@graph@kmint@@@0@@Z
	??$_Destroy_range@V?$allocator@PEAVactor@play@kmint@@@std@@@std@@YAXPEAPEAVactor@play@kmint@@QEAPEAV123@AEAV?$allocator@PEAVactor@play@kmint@@@0@@Z
	??$_Destroy_range@V?$allocator@V?$unique_ptr@V?$basic_edge@Umap_node_info@map@kmint@@@graph@kmint@@U?$default_delete@V?$basic_edge@Umap_node_info@map@kmint@@@graph@kmint@@@std@@@std@@@std@@@std@@YAXPEAV?$unique_ptr@V?$basic_edge@Umap_node_info@map@kmint@@@graph@kmint@@U?$default_delete@V?$basic_edge@Umap_node_info@map@kmint@@@graph@kmint@@@std@@@0@QEAV10@AEAV?$allocator@V?$unique_ptr@V?$basic_edge@Umap_node_info@map@kmint@@@graph@kmint@@U?$default_delete@V?$basic_edge@Umap_node_info@map@kmint@@@graph@kmint@@@std@@@std@@@0@@Z
	??$_Destroy_range@V?$allocator@V?$unique_ptr@V?$basic_edge@Uno_node_info@graph@kmint@@@graph@kmint@@U?$default_delete@V?$basic_edge@Uno_node_info@graph@kmint@@@graph@kmint@@@std@@@std@@@std@@@std@@YAXPEAV?$unique_ptr@V?$basic_edge@Uno_node_info@graph@kmint@@@graph@kmint@@U?$default_delete@V?$basic_edge@Uno_node_info@graph@kmint@@@graph@kmint@@@std@@@0@QEAV10@AEAV?$allocator@V?$unique_ptr@V?$basic_edge@Uno_node_info@graph@kmint@@@graph@kmint@@U?$default_delete@V?$basic_edge@Uno_node_info@graph@kmint@@@graph@kmint@@@std@@@std@@@0@@Z
	??$_Destroy_range@V?$allocator@V?$unique_ptr@V?$basic_node@Umap_node_info@map@kmint@@@graph@kmint@@U?$default_delete@V?$basic_node@Umap_node_info@map@kmint@@@graph@kmint@@@std@@@std@@@std@@@std@@YAXPEAV?$unique_ptr@V?$basic_node@Umap_node_info@map@kmint@@@graph@kmint@@U?$default_delete@V?$basic_node@Umap_node_info@map@kmint@@@graph@kmint@@@std@@@0@QEAV10@AEAV?$allocator@V?$unique_ptr@V?$basic_node@Umap_node_info@map@kmint@@@graph@kmint@@U?$default_delete@V?$basic_node@Umap_node_info@map@kmint@@@graph@kmint@@@std@@@std@@@0@@Z
	??$_Destroy_range@V?$allocator@V?$unique_ptr@V?$basic_node@Uno_node_info@graph@kmint@@@graph@kmint@@U?$default_delete@V?$basic_node@Uno_node_info@graph@kmint@@@graph@kmint@@@std@@@std@@@std@@@std@@YAXPEAV?$unique_ptr@V?$basic_node@Uno_node_info@graph@kmint@@@graph@kmint@@U?$default_delete@V?$basic_node@Uno_node_info@graph@kmint@@@graph@kmint@@@std@@@0@QEAV10@AEAV?$allocator@V?$unique_ptr@V?$basic_node@Uno_node_info@graph@kmint@@@graph@kmint@@U?$default_delete@V?$basic_node@Uno_node_info@graph@kmint@@@graph@kmint@@@std@@@std@@@0@@Z
	??$_Destroy_range@V?$allocator@V?$unique_ptr@Vactor@play@kmint@@U?$default_delete@Vactor@play@kmint@@@std@@@std@@@std@@@std@@YAXPEAV?$unique_ptr@Vactor@play@kmint@@U?$default_delete@Vactor@play@kmint@@@std@@@0@QEAV10@AEAV?$allocator@V?$unique_ptr@Vactor@play@kmint@@U?$default_delete@Vactor@play@kmint@@@std@@@std@@@0@@Z
	??$_Dispatch2@V?$optional@Usaturated@?$quad_tree@$03@play@kmint@@@std@@U?$overload@V<lambda_ad2beb13dbb0cf610997dab0ec383f8b>@@V<lambda_c23fc6e423333c95ae20a61e475ddf2a>@@@kmint@@AEAV?$variant@Ufree@?$quad_tree@$03@play@kmint@@Usaturated@234@@2@$00@?$_Variant_dispatcher@U?$integer_sequence@_K$0A@@std@@@std@@SA?AV?$optional@Usaturated@?$quad_tree@$03@play@kmint@@@1@$$QEAU?$overload@V<lambda_ad2beb13dbb0cf610997dab0ec383f8b>@@V<lambda_c23fc6e423333c95ae20a61e475ddf2a>@@@kmint@@AEAV?$variant@Ufree@?$quad_tree@$03@play@kmint@@Usaturated@234@@1@@Z
	??$_Dispatch2@V?$optional@Usaturated@?$quad_tree@$03@play@kmint@@@std@@U?$overload@V<lambda_ad2beb13dbb0cf610997dab0ec383f8b>@@V<lambda_c23fc6e423333c95ae20a61e475ddf2a>@@@kmint@@AEAV?$variant@Ufree@?$quad_tree@$03@play@kmint@@Usaturated@234@@2@$0A@@?$_Variant_dispatcher@U?$integer_sequence@_K$00@std@@@std@@SA?AV?$optional@Usaturated@?$quad_tree@$03@play@kmint@@@1@$$QEAU?$overload@V<lambda_ad2beb13dbb0cf610997dab0ec383f8b>@@V<lambda_c23fc6e423333c95ae20a61e475ddf2a>@@@kmint@@AEAV?$variant@Ufree@?$quad_tree@$03@play@kmint@@Usaturated@234@@1@@Z
	??$_Dispatch2@V?$optional@Usaturated@?$quad_tree@$03@play@kmint@@@std@@U?$overload@V<lambda_ad2beb13dbb0cf610997dab0ec383f8b>@@V<lambda_c23fc6e423333c95ae20a61e475ddf2a>@@@kmint@@AEAV?$variant@Ufree@?$quad_tree@$03@play@kmint@@Usaturated@234@@2@$0A@@?$_Variant_dispatcher@U?$integer_sequence@_K$01@std@@@std@@SA?AV?$optional@Usaturated@?$quad_tree@$03@play@kmint@@@1@$$QEAU?$overload@V<lambda_ad2beb13dbb0cf610997dab0ec383f8b>@@V<lambda_c23fc6e423333c95ae20a61e475ddf2a>@@@kmint@@AEAV?$variant@Ufree@?$quad_tree@$03@play@kmint@@Usaturated@234@@1@@Z
	??$_Dispatch2@XU?$overload@V<lambda_1523b8ddba63e718f43ea97c9e0b26ab>@@V<lambda_29327d9d9fb0be4adcefd7095d0faa01>@@@kmint@@AEBV?$variant@Ufree@?$quad_tree@$03@play@kmint@@Usaturated@234@@std@@$00@?$_Variant_dispatcher@U?$integer_sequence@_K$0A@@std@@@std@@SAX$$QEAU?$overload@V<lambda_1523b8ddba63e718f43ea97c9e0b26ab>@@V<lambda_29327d9d9fb0be4adcefd7095d0faa01>@@@kmint@@AEBV?$variant@Ufree@?$quad_tree@$03@play@kmint@@Usaturated@234@@1@@Z
	??$_Dispatch2@XU?$overload@V<lambda_1523b8ddba63e718f43ea97c9e0b26ab>@@V<lambda_29327d9d9fb0be4adcefd7095d0faa01>@@@kmint@@AEBV?$variant@Ufree@?$quad_tree@$03@play@kmint@@Usaturated@234@@std@@$0A@@?$_Variant_dispatcher@U?$integer_sequence@_K$00@std@@@std@@SAX$$QEAU?$overload@V<lambda_1523b8ddba63e718f43ea97c9e0b26ab>@@V<lambda_29327d9d9fb0be4adcefd7095d0faa01>@@@kmint@@AEBV?$variant@Ufree@?$quad_tree@$03@play@kmint@@Usaturated@234@@1@@Z
	??$_Dispatch2@XU?$overload@V<lambda_1523b8ddba63e718f43ea97c9e0b26ab>@@V<lambda_29327d9d9fb0be4adcefd7095d0faa01>@@@kmint@@AEBV?$variant@Ufree@?$quad_tree@$03@play@kmint@@Usaturated@234@@std@@$0A@@?$_Variant_dispatcher@U?$integer_sequence@_K$01@std@@@std@@SAX$$QEAU?$overload@V<lambda_1523b8ddba63e718f43ea97c9e0b26ab>@@V<lambda_29327d9d9fb0be4adcefd7095d0faa01>@@@kmint@@AEBV?$variant@Ufree@?$quad_tree@$03@play@kmint@@Usaturated@234@@1@@Z
	??$_Dispatch2@XU?$overload@V<lambda_5e603f1a4bce7b3b42fb0d0c3f008067>@@V<lambda_5b573ddf20ab6b8c519541572a849e86>@@@kmint@@AEBV?$variant@Ufree@?$quad_tree@$03@play@kmint@@Usaturated@234@@std@@$00@?$_Variant_dispatcher@U?$integer_sequence@_K$0A@@std@@@std@@SAX$$QEAU?$overload@V<lambda_5e603f1a4bce7b3b42fb0d0c3f008067>@@V<lambda_5b573ddf20ab6b8c519541572a849e86>@@@kmint@@AEBV?$variant@Ufree@?$quad_tree@$03@play@kmint@@Usaturated@234@@1@@Z
	??$_Dispatch2@XU?$overload@V<lambda_5e603f1a4bce7b3b42fb0d0c3f008067>@@V<lambda_5b573ddf20ab6b8c519541572a849e86>@@@kmint@@AEBV?$variant@Ufree@?$quad_tree@$03@play@kmint@@Usaturated@234@@std@@$0A@@?$_Variant_dispatcher@U?$integer_sequence@_K$00@std@@@std@@SAX$$QEAU?$overload@V<lambda_5e603f1a4bce7b3b42fb0d0c3f008067>@@V<lambda_5b573ddf20ab6b8c519541572a849e86>@@@kmint@@AEBV?$variant@Ufree@?$quad_tree@$03@play@kmint@@Usaturated@234@@1@@Z
	??$_Dispatch2@XU?$overload@V<lambda_5e603f1a4bce7b3b42fb0d0c3f008067>@@V<lambda_5b573ddf20ab6b8c519541572a849e86>@@@kmint@@AEBV?$variant@Ufree@?$quad_tree@$03@play@kmint@@Usaturated@234@@std@@$0A@@?$_Variant_dispatcher@U?$integer_sequence@_K$01@std@@@std@@SAX$$QEAU?$overload@V<lambda_5e603f1a4bce7b3b42fb0d0c3f008067>@@V<lambda_5b573ddf20ab6b8c519541572a849e86>@@@kmint@@AEBV?$variant@Ufree@?$quad_tree@$03@play@kmint@@Usaturated@234@@1@@Z
	??$_Emplace@AEADAEAUtile_info@map@kmint@@@?$_Tree@V?$_Tmap_traits@DUtile_info@map@kmint@@U?$less@D@std@@V?$allocator@U?$pair@$$CBDUtile_info@map@kmint@@@std@@@5@$0A@@std@@@std@@IEAA?AU?$pair@PEAU?$_Tree_node@U?$pair@$$CBDUtile_info@map@kmint@@@std@@PEAX@std@@_N@1@AEADAEAUtile_info@map@kmint@@@Z
	??$_Emplace@U?$pair@V?$basic_string@DU?$char_traits@D@std@@V?$allocator@D@2@@std@@Vtexture@sdl@ui@kmint@@@std@@@?$_Tree@V?$_Tmap_traits@V?$basic_string@DU?$char_traits@D@std@@V?$allocator@D@2@@std@@Vtexture@sdl@ui@kmint@@U?$less@V?$basic_string@DU?$char_traits@D@std@@V?$allocator@D@2@@std@@@2@V?$allocator@U?$pair@$$CBV?$basic_string@DU?$char_traits@D@std@@V?$allocator@D@2@@std@@Vtexture@sdl@ui@kmint@@@std@@@2@$0A@@std@@@std@@IEAA?AU?$pair@PEAU?$_Tree_node@U?$pair@$$CBV?$basic_string@DU?$char_traits@D@std@@V?$allocator@D@2@@std@@Vtexture@sdl@ui@kmint@@@std@@PEAX@std@@_N@1@$$QEAU?$pair@V?$basic_string@DU?$char_traits@D@std@@V?$allocator@D@2@@std@@Vtexture@sdl@ui@kmint@@@1@@Z
	??$_Emplace_back@AEBH@?$_Uninitialized_backout_al@V?$allocator@H@std@@@std@@QEAAXAEBH@Z
	??$_Emplace_back@AEBV?$_List_unchecked_iterator@V?$_List_val@U?$_List_simple_types@U?$pair@$$CBDV?$vector@PEAV?$basic_node@Umap_node_info@map@kmint@@@graph@kmint@@V?$allocator@PEAV?$basic_node@Umap_node_info@map@kmint@@@graph@kmint@@@std@@@std@@@std@@@std@@@std@@@std@@@?$_Uninitialized_backout@PEAV?$_List_unchecked_iterator@V?$_List_val@U?$_List_simple_types@U?$pair@$$CBDV?$vector@PEAV?$basic_node@Umap_node_info@map@kmint@@@graph@kmint@@V?$allocator@PEAV?$basic_node@Umap_node_info@map@kmint@@@graph@kmint@@@std@@@std@@@std@@@std@@@std@@@std@@@std@@QEAAXAEBV?$_List_unchecked_iterator@V?$_List_val@U?$_List_simple_types@U?$pair@$$CBDV?$vector@PEAV?$basic_node@Umap_node_info@map@kmint@@@graph@kmint@@V?$allocator@PEAV?$basic_node@Umap_node_info@map@kmint@@@graph@kmint@@@std@@@std@@@std@@@std@@@std@@@1@@Z
	??$_Emplace_back@V?$unique_ptr@V?$basic_edge@Umap_node_info@map@kmint@@@graph@kmint@@U?$default_delete@V?$basic_edge@Umap_node_info@map@kmint@@@graph@kmint@@@std@@@std@@@?$_Uninitialized_backout_al@V?$allocator@V?$unique_ptr@V?$basic_edge@Umap_node_info@map@kmint@@@graph@kmint@@U?$default_delete@V?$basic_edge@Umap_node_info@map@kmint@@@graph@kmint@@@std@@@std@@@std@@@std@@QEAAX$$QEAV?$unique_ptr@V?$basic_edge@Umap_node_info@map@kmint@@@graph@kmint@@U?$default_delete@V?$basic_edge@Umap_node_info@map@kmint@@@graph@kmint@@@std@@@1@@Z
	??$_Emplace_back@V?$unique_ptr@V?$basic_edge@Uno_node_info@graph@kmint@@@graph@kmint@@U?$default_delete@V?$basic_edge@Uno_node_info@graph@kmint@@@graph@kmint@@@std@@@std@@@?$_Uninitialized_backout_al@V?$allocator@V?$unique_ptr@V?$basic_edge@Uno_node_info@graph@kmint@@@graph@kmint@@U?$default_delete@V?$basic_edge@Uno_node_info@graph@kmint@@@graph@kmint@@@std@@@std@@@std@@@std@@QEAAX$$QEAV?$unique_ptr@V?$basic_edge@Uno_node_info@graph@kmint@@@graph@kmint@@U?$default_delete@V?$basic_edge@Uno_node_info@graph@kmint@@@graph@kmint@@@std@@@1@@Z
	??$_Emplace_back@V?$unique_ptr@V?$basic_node@Umap_node_info@map@kmint@@@graph@kmint@@U?$default_delete@V?$basic_node@Umap_node_info@map@kmint@@@graph@kmint@@@std@@@std@@@?$_Uninitialized_backout_al@V?$allocator@V?$unique_ptr@V?$basic_node@Umap_node_info@map@kmint@@@graph@kmint@@U?$default_delete@V?$basic_node@Umap_node_info@map@kmint@@@graph@kmint@@@std@@@std@@@std@@@std@@QEAAX$$QEAV?$unique_ptr@V?$basic_node@Umap_node_info@map@kmint@@@graph@kmint@@U?$default_delete@V?$basic_node@Umap_node_info@map@kmint@@@graph@kmint@@@std@@@1@@Z
	??$_Emplace_back@V?$unique_ptr@V?$basic_node@Uno_node_info@graph@kmint@@@graph@kmint@@U?$default_delete@V?$basic_node@Uno_node_info@graph@kmint@@@graph@kmint@@@std@@@std@@@?$_Uninitialized_backout_al@V?$allocator@V?$unique_ptr@V?$basic_node@Uno_node_info@graph@kmint@@@graph@kmint@@U?$default_delete@V?$basic_node@Uno_node_info@graph@kmint@@@graph@kmint@@@std@@@std@@@std@@@std@@QEAAX$$QEAV?$unique_ptr@V?$basic_node@Uno_node_info@graph@kmint@@@graph@kmint@@U?$default_delete@V?$basic_node@Uno_node_info@graph@kmint@@@graph@kmint@@@std@@@1@@Z
	??$_Emplace_back_with_unused_capacity@AEBD@?$vector@DV?$allocator@D@std@@@std@@AEAAAEADAEBD@Z
	??$_Emplace_back_with_unused_capacity@AEBQEAVactor@play@kmint@@@?$vector@PEAVactor@play@kmint@@V?$allocator@PEAVactor@play@kmint@@@std@@@std@@AEAAAEAPEAVactor@play@kmint@@AEBQEAV234@@Z
	??$_Emplace_back_with_unused_capacity@PEAV?$basic_node@Umap_node_info@map@kmint@@@graph@kmint@@@?$vector@PEAV?$basic_node@Umap_node_info@map@kmint@@@graph@kmint@@V?$allocator@PEAV?$basic_node@Umap_node_info@map@kmint@@@graph@kmint@@@std@@@std@@AEAAAEAPEAV?$basic_node@Umap_node_info@map@kmint@@@graph@kmint@@$$QEAPEAV234@@Z
	??$_Emplace_back_with_unused_capacity@PEAV?$basic_node@Umap_node_info@map@kmint@@@graph@kmint@@@?$vector@V?$unique_ptr@V?$basic_node@Umap_node_info@map@kmint@@@graph@kmint@@U?$default_delete@V?$basic_node@Umap_node_info@map@kmint@@@graph@kmint@@@std@@@std@@V?$allocator@V?$unique_ptr@V?$basic_node@Umap_node_info@map@kmint@@@graph@kmint@@U?$default_delete@V?$basic_node@Umap_node_info@map@kmint@@@graph@kmint@@@std@@@std@@@2@@std@@AEAAAEAV?$unique_ptr@V?$basic_node@Umap_node_info@map@kmint@@@graph@kmint@@U?$default_delete@V?$basic_node@Umap_node_info@map@kmint@@@graph@kmint@@@std@@@1@$$QEAPEAV?$basic_node@Umap_node_info@map@kmint@@@graph@kmint@@@Z
	??$_Emplace_back_with_unused_capacity@PEAV?$basic_node@Uno_node_info@graph@kmint@@@graph@kmint@@@?$vector@V?$unique_ptr@V?$basic_node@Uno_node_info@graph@kmint@@@graph@kmint@@U?$default_delete@V?$basic_node@Uno_node_info@graph@kmint@@@graph@kmint@@@std@@@std@@V?$allocator@V?$unique_ptr@V?$basic_node@Uno_node_info@graph@kmint@@@graph@kmint@@U?$default_delete@V?$basic_node@Uno_node_info@graph@kmint@@@graph@kmint@@@std@@@std@@@2@@std@@AEAAAEAV?$unique_ptr@V?$basic_node@Uno_node_info@graph@kmint@@@graph@kmint@@U?$default_delete@V?$basic_node@Uno_node_info@graph@kmint@@@graph@kmint@@@std@@@1@$$QEAPEAV?$basic_node@Uno_node_info@graph@kmint@@@graph@kmint@@@Z
	??$_Emplace_back_with_unused_capacity@PEAVactor@play@kmint@@@?$vector@PEAVactor@play@kmint@@V?$allocator@PEAVactor@play@kmint@@@std@@@std@@AEAAAEAPEAVactor@play@kmint@@$$QEAPEAV234@@Z
	??$_Emplace_back_with_unused_capacity@V?$unique_ptr@V?$basic_edge@Umap_node_info@map@kmint@@@graph@kmint@@U?$default_delete@V?$basic_edge@Umap_node_info@map@kmint@@@graph@kmint@@@std@@@std@@@?$vector@V?$unique_ptr@V?$basic_edge@Umap_node_info@map@kmint@@@graph@kmint@@U?$default_delete@V?$basic_edge@Umap_node_info@map@kmint@@@graph@kmint@@@std@@@std@@V?$allocator@V?$unique_ptr@V?$basic_edge@Umap_node_info@map@kmint@@@graph@kmint@@U?$default_delete@V?$basic_edge@Umap_node_info@map@kmint@@@graph@kmint@@@std@@@std@@@2@@std@@AEAAAEAV?$unique_ptr@V?$basic_edge@Umap_node_info@map@kmint@@@graph@kmint@@U?$default_delete@V?$basic_edge@Umap_node_info@map@kmint@@@graph@kmint@@@std@@@1@$$QEAV21@@Z
	??$_Emplace_back_with_unused_capacity@V?$unique_ptr@V?$basic_edge@Uno_node_info@graph@kmint@@@graph@kmint@@U?$default_delete@V?$basic_edge@Uno_node_info@graph@kmint@@@graph@kmint@@@std@@@std@@@?$vector@V?$unique_ptr@V?$basic_edge@Uno_node_info@graph@kmint@@@graph@kmint@@U?$default_delete@V?$basic_edge@Uno_node_info@graph@kmint@@@graph@kmint@@@std@@@std@@V?$allocator@V?$unique_ptr@V?$basic_edge@Uno_node_info@graph@kmint@@@graph@kmint@@U?$default_delete@V?$basic_edge@Uno_node_info@graph@kmint@@@graph@kmint@@@std@@@std@@@2@@std@@AEAAAEAV?$unique_ptr@V?$basic_edge@Uno_node_info@graph@kmint@@@graph@kmint@@U?$default_delete@V?$basic_edge@Uno_node_info@graph@kmint@@@graph@kmint@@@std@@@1@$$QEAV21@@Z
	??$_Emplace_reallocate@AEBD@?$vector@DV?$allocator@D@std@@@std@@QEAAPEADQEADAEBD@Z
	??$_Emplace_reallocate@AEBQEAVactor@play@kmint@@@?$vector@PEAVactor@play@kmint@@V?$allocator@PEAVactor@play@kmint@@@std@@@std@@QEAAPEAPEAVactor@play@kmint@@QEAPEAV234@AEBQEAV234@@Z
	??$_Emplace_reallocate@PEAV?$basic_node@Umap_node_info@map@kmint@@@graph@kmint@@@?$vector@PEAV?$basic_node@Umap_node_info@map@kmint@@@graph@kmint@@V?$allocator@PEAV?$basic_node@Umap_node_info@map@kmint@@@graph@kmint@@@std@@@std@@QEAAPEAPEAV?$basic_node@Umap_node_info@map@kmint@@@graph@kmint@@QEAPEAV234@$$QEAPEAV234@@Z
	??$_Emplace_reallocate@PEAV?$basic_node@Umap_node_info@map@kmint@@@graph@kmint@@@?$vector@V?$unique_ptr@V?$basic_node@Umap_node_info@map@kmint@@@graph@kmint@@U?$default_delete@V?$basic_node@Umap_node_info@map@kmint@@@graph@kmint@@@std@@@std@@V?$allocator@V?$unique_ptr@V?$basic_node@Umap_node_info@map@kmint@@@graph@kmint@@U?$default_delete@V?$basic_node@Umap_node_info@map@kmint@@@graph@kmint@@@std@@@std@@@2@@std@@QEAAPEAV?$unique_ptr@V?$basic_node@Umap_node_info@map@kmint@@@graph@kmint@@U?$default_delete@V?$basic_node@Umap_node_info@map@kmint@@@graph@kmint@@@std@@@1@QEAV21@$$QEAPEAV?$basic_node@Umap_node_info@map@kmint@@@graph@kmint@@@Z
	??$_Emplace_reallocate@PEAV?$basic_node@Uno_node_info@graph@kmint@@@graph@kmint@@@?$vector@V?$unique_ptr@V?$basic_node@Uno_node_info@graph@kmint@@@graph@kmint@@U?$default_delete@V?$basic_node@Uno_node_info@graph@kmint@@@graph@kmint@@@std@@@std@@V?$allocator@V?$unique_ptr@V?$basic_node@Uno_node_info@graph@kmint@@@graph@kmint@@U?$default_delete@V?$basic_node@Uno_node_info@graph@kmint@@@graph@kmint@@@std@@@std@@@2@@std@@QEAAPEAV?$unique_ptr@V?$basic_node@Uno_node_info@graph@kmint@@@graph@kmint@@U?$default_delete@V?$basic_node@Uno_node_info@graph@kmint@@@graph@kmint@@@std@@@1@QEAV21@$$QEAPEAV?$basic_node@Uno_node_info@graph@kmint@@@graph@kmint@@@Z
	??$_Emplace_reallocate@PEAVactor@play@kmint@@@?$vector@PEAVactor@play@kmint@@V?$allocator@PEAVactor@play@kmint@@@std@@@std@@QEAAPEAPEAVactor@play@kmint@@QEAPEAV234@$$QEAPEAV234@@Z
	??$_Emplace_reallocate@V?$unique_ptr@V?$basic_edge@Umap_node_info@map@kmint@@@graph@kmint@@U?$default_delete@V?$basic_edge@Umap_node_info@map@kmint@@@graph@kmint@@@std@@@std@@@?$vector@V?$unique_ptr@V?$basic_edge@Umap_node_info@map@kmint@@@graph@kmint@@U?$default_delete@V?$basic_edge@Umap_node_info@map@kmint@@@graph@kmint@@@std@@@std@@V?$allocator@V?$unique_ptr@V?$basic_edge@Umap_node_info@map@kmint@@@graph@kmint@@U?$default_delete@V?$basic_edge@Umap_node_info@map@kmint@@@graph@kmint@@@std@@@std@@@2@@std@@QEAAPEAV?$unique_ptr@V?$basic_edge@Umap_node_info@map@kmint@@@graph@kmint@@U?$default_delete@V?$basic_edge@Umap_node_info@map@kmint@@@graph@kmint@@@std@@@1@QEAV21@$$QEAV21@@Z
	??$_Emplace_reallocate@V?$unique_ptr@V?$basic_edge@Uno_node_info@graph@kmint@@@graph@kmint@@U?$default_delete@V?$basic_edge@Uno_node_info@graph@kmint@@@graph@kmint@@@std@@@std@@@?$vector@V?$unique_ptr@V?$basic_edge@Uno_node_info@graph@kmint@@@graph@kmint@@U?$default_delete@V?$basic_edge@Uno_node_info@graph@kmint@@@graph@kmint@@@std@@@std@@V?$allocator@V?$unique_ptr@V?$basic_edge@Uno_node_info@graph@kmint@@@graph@kmint@@U?$default_delete@V?$basic_edge@Uno_node_info@graph@kmint@@@graph@kmint@@@std@@@std@@@2@@std@@QEAAPEAV?$unique_ptr@V?$basic_edge@Uno_node_info@graph@kmint@@@graph@kmint@@U?$default_delete@V?$basic_edge@Uno_node_info@graph@kmint@@@graph@kmint@@@std@@@1@QEAV21@$$QEAV21@@Z
	??$_Emplace_valueless@$00Usaturated@?$quad_tree@$03@play@kmint@@@?$variant@Ufree@?$quad_tree@$03@play@kmint@@Usaturated@234@@std@@AEAAAEAUsaturated@?$quad_tree@$03@play@kmint@@$$QEAU2345@@Z
	??$_Erase_head@V?$allocator@U?$_Tree_node@U?$pair@$$CBDUtile_info@map@kmint@@@std@@PEAX@std@@@std@@@?$_Tree_val@U?$_Tree_simple_types@U?$pair@$$CBDUtile_info@map@kmint@@@std@@@std@@@std@@QEAAXAEAV?$allocator@U?$_Tree_node@U?$pair@$$CBDUtile_info@map@kmint@@@std@@PEAX@std@@@1@@Z
	??$_Erase_head@V?$allocator@U?$_Tree_node@U?$pair@$$CBV?$basic_string@DU?$char_traits@D@std@@V?$allocator@D@2@@std@@Vtexture@sdl@ui@kmint@@@std@@PEAX@std@@@std@@@?$_Tree_val@U?$_Tree_simple_types@U?$pair@$$CBV?$basic_string@DU?$char_traits@D@std@@V?$allocator@D@2@@std@@Vtexture@sdl@ui@kmint@@@std@@@std@@@std@@QEAAXAEAV?$allocator@U?$_Tree_node@U?$pair@$$CBV?$basic_string@DU?$char_traits@D@std@@V?$allocator@D@2@@std@@Vtexture@sdl@ui@kmint@@@std@@PEAX@std@@@1@@Z
	??$_Erase_tree@V?$allocator@U?$_Tree_node@U?$pair@$$CBDUtile_info@map@kmint@@@std@@PEAX@std@@@std@@@?$_Tree_val@U?$_Tree_simple_types@U?$pair@$$CBDUtile_info@map@kmint@@@std@@@std@@@std@@QEAAXAEAV?$allocator@U?$_Tree_node@U?$pair@$$CBDUtile_info@map@kmint@@@std@@PEAX@std@@@1@PEAU?$_Tree_node@U?$pair@$$CBDUtile_info@map@kmint@@@std@@PEAX@1@@Z
	??$_Erase_tree@V?$allocator@U?$_Tree_node@U?$pair@$$CBV?$basic_string@DU?$char_traits@D@std@@V?$allocator@D@2@@std@@Vtexture@sdl@ui@kmint@@@std@@PEAX@std@@@std@@@?$_Tree_val@U?$_Tree_simple_types@U?$pair@$$CBV?$basic_string@DU?$char_traits@D@std@@V?$allocator@D@2@@std@@Vtexture@sdl@ui@kmint@@@std@@@std@@@std@@QEAAXAEAV?$allocator@U?$_Tree_node@U?$pair@$$CBV?$basic_string@DU?$char_traits@D@std@@V?$allocator@D@2@@std@@Vtexture@sdl@ui@kmint@@@std@@PEAX@std@@@1@PEAU?$_Tree_node@U?$pair@$$CBV?$basic_string@DU?$char_traits@D@std@@V?$allocator@D@2@@std@@Vtexture@sdl@ui@kmint@@@std@@PEAX@1@@Z
	??$_Erase_tree_and_orphan@V?$allocator@U?$_Tree_node@U?$pair@$$CBDUtile_info@map@kmint@@@std@@PEAX@std@@@std@@@?$_Tree_val@U?$_Tree_simple_types@U?$pair@$$CBDUtile_info@map@kmint@@@std@@@std@@@std@@QEAAXAEAV?$allocator@U?$_Tree_node@U?$pair@$$CBDUtile_info@map@kmint@@@std@@PEAX@std@@@1@PEAU?$_Tree_node@U?$pair@$$CBDUtile_info@map@kmint@@@std@@PEAX@1@@Z
	??$_Eval@V?$mersenne_twister_engine@I$0CA@$0CHA@$0BIN@$0BP@$0JJAILANP@$0L@$0PPPPPPPP@$06$0JNCMFGIA@$0P@$0OPMGAAAA@$0BC@$0GMAHIJGF@@std@@@?$uniform_int@H@std@@AEBAHAEAV?$mersenne_twister_engine@I$0CA@$0CHA@$0BIN@$0BP@$0JJAILANP@$0L@$0PPPPPPPP@$06$0JNCMFGIA@$0P@$0OPMGAAAA@$0BC@$0GMAHIJGF@@1@HH@Z
	??$_Eval@V?$mersenne_twister_engine@I$0CA@$0CHA@$0BIN@$0BP@$0JJAILANP@$0L@$0PPPPPPPP@$06$0JNCMFGIA@$0P@$0OPMGAAAA@$0BC@$0GMAHIJGF@@std@@@?$uniform_real@M@std@@AEBAMAEAV?$mersenne_twister_engine@I$0CA@$0CHA@$0BIN@$0BP@$0JJAILANP@$0L@$0PPPPPPPP@$06$0JNCMFGIA@$0P@$0OPMGAAAA@$0BC@$0GMAHIJGF@@1@AEBUparam_type@01@@Z
	??$_Find@V?$basic_string@DU?$char_traits@D@std@@V?$allocator@D@2@@std@@@?$_Tree@V?$_Tmap_traits@V?$basic_string@DU?$char_traits@D@std@@V?$allocator@D@2@@std@@Vtexture@sdl@ui@kmint@@U?$less@V?$basic_string@DU?$char_traits@D@std@@V?$allocator@D@2@@std@@@2@V?$allocator@U?$pair@$$CBV?$basic_string@DU?$char_traits@D@std@@V?$allocator@D@2@@std@@Vtexture@sdl@ui@kmint@@@std@@@2@$0A@@std@@@std@@AEBAPEAU?$_Tree_node@U?$pair@$$CBV?$basic_string@DU?$char_traits@D@std@@V?$allocator@D@2@@std@@Vtexture@sdl@ui@kmint@@@std@@PEAX@1@AEBV?$basic_string@DU?$char_traits@D@std@@V?$allocator@D@2@@1@@Z
	??$_Find_last@D@?$_Hash@V?$_Umap_traits@DV?$vector@PEAV?$basic_node@Umap_node_info@map@kmint@@@graph@kmint@@V?$allocator@PEAV?$basic_node@Umap_node_info@map@kmint@@@graph@kmint@@@std@@@std@@V?$_Uhash_compare@DU?$hash@D@std@@U?$equal_to@D@2@@2@V?$allocator@U?$pair@$$CBDV?$vector@PEAV?$basic_node@Umap_node_info@map@kmint@@@graph@kmint@@V?$allocator@PEAV?$basic_node@Umap_node_info@map@kmint@@@graph@kmint@@@std@@@std@@@std@@@2@$0A@@std@@@std@@IEBA?AU?$_Hash_find_last_result@PEAU?$_List_node@U?$pair@$$CBDV?$vector@PEAV?$basic_node@Umap_node_info@map@kmint@@@graph@kmint@@V?$allocator@PEAV?$basic_node@Umap_node_info@map@kmint@@@graph@kmint@@@std@@@std@@@std@@PEAX@std@@@1@AEBD_K@Z
	??$_Find_lower_bound@D@?$_Tree@V?$_Tmap_traits@DUtile_info@map@kmint@@U?$less@D@std@@V?$allocator@U?$pair@$$CBDUtile_info@map@kmint@@@std@@@5@$0A@@std@@@std@@IEBA?AU?$_Tree_find_result@PEAU?$_Tree_node@U?$pair@$$CBDUtile_info@map@kmint@@@std@@PEAX@std@@@1@AEBD@Z
	??$_Find_lower_bound@V?$basic_string@DU?$char_traits@D@std@@V?$allocator@D@2@@std@@@?$_Tree@V?$_Tmap_traits@V?$basic_string@DU?$char_traits@D@std@@V?$allocator@D@2@@std@@Vtexture@sdl@ui@kmint@@U?$less@V?$basic_string@DU?$char_traits@D@std@@V?$allocator@D@2@@std@@@2@V?$allocator@U?$pair@$$CBV?$basic_string@DU?$char_traits@D@std@@V?$allocator@D@2@@std@@Vtexture@sdl@ui@kmint@@@std@@@2@$0A@@std@@@std@@IEBA?AU?$_Tree_find_result@PEAU?$_Tree_node@U?$pair@$$CBV?$basic_string@DU?$char_traits@D@std@@V?$allocator@D@2@@std@@Vtexture@sdl@ui@kmint@@@std@@PEAX@std@@@1@AEBV?$basic_string@DU?$char_traits@D@std@@V?$allocator@D@2@@1@@Z
	??$_Fnv1a_append_value@D@std@@YA_K_KAEBD@Z
	??$_Free_non_head@V?$allocator@U?$_List_node@U?$pair@$$CBDV?$vector@PEAV?$basic_node@Umap_node_info@map@kmint@@@graph@kmint@@V?$allocator@PEAV?$basic_node@Umap_node_info@map@kmint@@@graph@kmint@@@std@@@std@@@std@@PEAX@std@@@std@@@?$_List_node@U?$pair@$$CBDV?$vector@PEAV?$basic_node@Umap_node_info@map@kmint@@@graph@kmint@@V?$allocator@PEAV?$basic_node@Umap_node_info@map@kmint@@@graph@kmint@@@std@@@std@@@std@@PEAX@std@@SAXAEAV?$allocator@U?$_List_node@U?$pair@$$CBDV?$vector@PEAV?$basic_node@Umap_node_info@map@kmint@@@graph@kmint@@V?$allocator@PEAV?$basic_node@Umap_node_info@map@kmint@@@graph@kmint@@@std@@@std@@@std@@PEAX@std@@@1@PEAU01@@Z
	??$_Freenode0@V?$allocator@U?$_List_node@U?$pair@$$CBDV?$vector@PEAV?$basic_node@Umap_node_info@map@kmint@@@graph@kmint@@V?$allocator@PEAV?$basic_node@Umap_node_info@map@kmint@@@graph@kmint@@@std@@@std@@@std@@PEAX@std@@@std@@@?$_List_node@U?$pair@$$CBDV?$vector@PEAV?$basic_node@Umap_node_info@map@kmint@@@graph@kmint@@V?$allocator@PEAV?$basic_node@Umap_node_info@map@kmint@@@graph@kmint@@@std@@@std@@@std@@PEAX@std@@SAXAEAV?$allocator@U?$_List_node@U?$pair@$$CBDV?$vector@PEAV?$basic_node@Umap_node_info@map@kmint@@@graph@kmint@@V?$allocator@PEAV?$basic_node@Umap_node_info@map@kmint@@@graph@kmint@@@std@@@std@@@std@@PEAX@std@@@1@PEAU01@@Z
	??$_Freenode0@V?$allocator@U?$_Tree_node@U?$pair@$$CBDUtile_info@map@kmint@@@std@@PEAX@std@@@std@@@?$_Tree_node@U?$pair@$$CBDUtile_info@map@kmint@@@std@@PEAX@std@@SAXAEAV?$allocator@U?$_Tree_node@U?$pair@$$CBDUtile_info@map@kmint@@@std@@PEAX@std@@@1@PEAU01@@Z
	??$_Freenode0@V?$allocator@U?$_Tree_node@U?$pair@$$CBV?$basic_string@DU?$char_traits@D@std@@V?$allocator@D@2@@std@@Vtexture@sdl@ui@kmint@@@std@@PEAX@std@@@std@@@?$_Tree_node@U?$pair@$$CBV?$basic_string@DU?$char_traits@D@std@@V?$allocator@D@2@@std@@Vtexture@sdl@ui@kmint@@@std@@PEAX@std@@SAXAEAV?$allocator@U?$_Tree_node@U?$pair@$$CBV?$basic_string@DU?$char_traits@D@std@@V?$allocator@D@2@@std@@Vtexture@sdl@ui@kmint@@@std@@PEAX@std@@@1@PEAU01@@Z
	??$_Freenode@V?$allocator@U?$_List_node@U?$pair@$$CBDV?$vector@PEAV?$basic_node@Umap_node_info@map@kmint@@@graph@kmint@@V?$allocator@PEAV?$basic_node@Umap_node_info@map@kmint@@@graph@kmint@@@std@@@std@@@std@@PEAX@std@@@std@@@?$_List_node@U?$pair@$$CBDV?$vector@PEAV?$basic_node@Umap_node_info@map@kmint@@@graph@kmint@@V?$allocator@PEAV?$basic_node@Umap_node_info@map@kmint@@@graph@kmint@@@std@@@std@@@std@@PEAX@std@@SAXAEAV?$allocator@U?$_List_node@U?$pair@$$CBDV?$vector@PEAV?$basic_node@Umap_node_info@map@kmint@@@graph@kmint@@V?$allocator@PEAV?$basic_node@Umap_node_info@map@kmint@@@graph@kmint@@@std@@@std@@@std@@PEAX@std@@@1@PEAU01@@Z
	??$_Freenode@V?$allocator@U?$_Tree_node@U?$pair@$$CBDUtile_info@map@kmint@@@std@@PEAX@std@@@std@@@?$_Tree_node@U?$pair@$$CBDUtile_info@map@kmint@@@std@@PEAX@std@@SAXAEAV?$allocator@U?$_Tree_node@U?$pair@$$CBDUtile_info@map@kmint@@@std@@PEAX@std@@@1@PEAU01@@Z
	??$_Freenode@V?$allocator@U?$_Tree_node@U?$pair@$$CBV?$basic_string@DU?$char_traits@D@std@@V?$allocator@D@2@@std@@Vtexture@sdl@ui@kmint@@@std@@PEAX@std@@@std@@@?$_Tree_node@U?$pair@$$CBV?$basic_string@DU?$char_traits@D@std@@V?$allocator@D@2@@std@@Vtexture@sdl@ui@kmint@@@std@@PEAX@std@@SAXAEAV?$allocator@U?$_Tree_node@U?$pair@$$CBV?$basic_string@DU?$char_traits@D@std@@V?$allocator@D@2@@std@@Vtexture@sdl@ui@kmint@@@std@@PEAX@std@@@1@PEAU01@@Z
	??$_Get_size_of_n@$00@std@@YA_K_K@Z
	??$_Get_size_of_n@$03@std@@YA_K_K@Z
	??$_Get_size_of_n@$07@std@@YA_K_K@Z
	??$_Get_size_of_n@$0BA@@std@@YA_K_K@Z
	??$_Get_size_of_n@$0CI@@std@@YA_K_K@Z
	??$_Get_size_of_n@$0DI@@std@@YA_K_K@Z
	??$_Get_size_of_n@$0FI@@std@@YA_K_K@Z
	??$_Get_unwrapped@AEAPEAV?$unique_ptr@Vactor@play@kmint@@U?$default_delete@Vactor@play@kmint@@@std@@@std@@@std@@YAPEAV?$unique_ptr@Vactor@play@kmint@@U?$default_delete@Vactor@play@kmint@@@std@@@0@AEAPEAV10@@Z
	??$_Get_unwrapped@AEAV?$_Vector_iterator@V?$_Vector_val@U?$_Simple_types@V?$unique_ptr@Vactor@play@kmint@@U?$default_delete@Vactor@play@kmint@@@std@@@std@@@std@@@std@@@std@@@std@@YAPEAV?$unique_ptr@Vactor@play@kmint@@U?$default_delete@Vactor@play@kmint@@@std@@@0@AEAV?$_Vector_iterator@V?$_Vector_val@U?$_Simple_types@V?$unique_ptr@Vactor@play@kmint@@U?$default_delete@Vactor@play@kmint@@@std@@@std@@@std@@@std@@@0@@Z
	??$_Get_unwrapped@AEAV?$istream_iterator@DDU?$char_traits@D@std@@_J@std@@@std@@YAAEAV?$istream_iterator@DDU?$char_traits@D@std@@_J@0@AEAV10@@Z
	??$_Get_unwrapped@AEBQEAD@std@@YAPEADAEBQEAD@Z
	??$_Get_unwrapped@AEBQEAPEAV?$basic_node@Umap_node_info@map@kmint@@@graph@kmint@@@std@@YAPEAPEAV?$basic_node@Umap_node_info@map@kmint@@@graph@kmint@@AEBQEAPEAV123@@Z
	??$_Get_unwrapped@AEBQEAPEAVactor@play@kmint@@@std@@YAPEAPEAVactor@play@kmint@@AEBQEAPEAV123@@Z
	??$_Get_unwrapped@AEBQEAV?$_List_unchecked_iterator@V?$_List_val@U?$_List_simple_types@U?$pair@$$CBDV?$vector@PEAV?$basic_node@Umap_node_info@map@kmint@@@graph@kmint@@V?$allocator@PEAV?$basic_node@Umap_node_info@map@kmint@@@graph@kmint@@@std@@@std@@@std@@@std@@@std@@@std@@@std@@YAPEAV?$_List_unchecked_iterator@V?$_List_val@U?$_List_simple_types@U?$pair@$$CBDV?$vector@PEAV?$basic_node@Umap_node_info@map@kmint@@@graph@kmint@@V?$allocator@PEAV?$basic_node@Umap_node_info@map@kmint@@@graph@kmint@@@std@@@std@@@std@@@std@@@std@@@0@AEBQEAV10@@Z
	??$_Get_unwrapped@AEBQEAV?$unique_ptr@V?$basic_edge@Umap_node_info@map@kmint@@@graph@kmint@@U?$default_delete@V?$basic_edge@Umap_node_info@map@kmint@@@graph@kmint@@@std@@@std@@@std@@YAPEAV?$unique_ptr@V?$basic_edge@Umap_node_info@map@kmint@@@graph@kmint@@U?$default_delete@V?$basic_edge@Umap_node_info@map@kmint@@@graph@kmint@@@std@@@0@AEBQEAV10@@Z
	??$_Get_unwrapped@AEBQEAV?$unique_ptr@V?$basic_edge@Uno_node_info@graph@kmint@@@graph@kmint@@U?$default_delete@V?$basic_edge@Uno_node_info@graph@kmint@@@graph@kmint@@@std@@@std@@@std@@YAPEAV?$unique_ptr@V?$basic_edge@Uno_node_info@graph@kmint@@@graph@kmint@@U?$default_delete@V?$basic_edge@Uno_node_info@graph@kmint@@@graph@kmint@@@std@@@0@AEBQEAV10@@Z
	??$_Get_unwrapped@AEBQEAV?$unique_ptr@V?$basic_node@Umap_node_info@map@kmint@@@graph@kmint@@U?$default_delete@V?$basic_node@Umap_node_info@map@kmint@@@graph@kmint@@@std@@@std@@@std@@YAPEAV?$unique_ptr@V?$basic_node@Umap_node_info@map@kmint@@@graph@kmint@@U?$default_delete@V?$basic_node@Umap_node_info@map@kmint@@@graph@kmint@@@std@@@0@AEBQEAV10@@Z
	??$_Get_unwrapped@AEBQEAV?$unique_ptr@V?$basic_node@Uno_node_info@graph@kmint@@@graph@kmint@@U?$default_delete@V?$basic_node@Uno_node_info@graph@kmint@@@graph@kmint@@@std@@@std@@@std@@YAPEAV?$unique_ptr@V?$basic_node@Uno_node_info@graph@kmint@@@graph@kmint@@U?$default_delete@V?$basic_node@Uno_node_info@graph@kmint@@@graph@kmint@@@std@@@0@AEBQEAV10@@Z
	??$_Get_unwrapped@AEBQEAV?$unique_ptr@Vactor@play@kmint@@U?$default_delete@Vactor@play@kmint@@@std@@@std@@@std@@YAPEAV?$unique_ptr@Vactor@play@kmint@@U?$default_delete@Vactor@play@kmint@@@std@@@0@AEBQEAV10@@Z
	??$_Get_unwrapped@AEBV?$_Vector_iterator@V?$_Vector_val@U?$_Simple_types@V?$unique_ptr@Vactor@play@kmint@@U?$default_delete@Vactor@play@kmint@@@std@@@std@@@std@@@std@@@std@@@std@@YAPEAV?$unique_ptr@Vactor@play@kmint@@U?$default_delete@Vactor@play@kmint@@@std@@@0@AEBV?$_Vector_iterator@V?$_Vector_val@U?$_Simple_types@V?$unique_ptr@Vactor@play@kmint@@U?$default_delete@Vactor@play@kmint@@@std@@@std@@@std@@@std@@@0@@Z
	??$_Get_unwrapped_n@AEAV?$back_insert_iterator@V?$vector@DV?$allocator@D@std@@@std@@@std@@U_Distance_unknown@2@@std@@YAAEAV?$back_insert_iterator@V?$vector@DV?$allocator@D@std@@@std@@@0@AEAV10@U_Distance_unknown@0@@Z
	??$_Hash_representation@D@std@@YA_KAEBD@Z
	??$_Idl_distance@V?$istream_iterator@DDU?$char_traits@D@std@@_J@std@@V12@@std@@YA?AU_Distance_unknown@0@AEBV?$istream_iterator@DDU?$char_traits@D@std@@_J@0@0@Z
	??$_Kfn@$$CBDUtile_info@map@kmint@@@?$_Tmap_traits@DUtile_info@map@kmint@@U?$less@D@std@@V?$allocator@U?$pair@$$CBDUtile_info@map@kmint@@@std@@@5@$0A@@std@@SAAEBDAEBU?$pair@$$CBDUtile_info@map@kmint@@@1@@Z
	??$_Kfn@$$CBDV?$vector@PEAV?$basic_node@Umap_node_info@map@kmint@@@graph@kmint@@V?$allocator@PEAV?$basic_node@Umap_node_info@map@kmint@@@graph@kmint@@@std@@@std@@@?$_Umap_traits@DV?$vector@PEAV?$basic_node@Umap_node_info@map@kmint@@@graph@kmint@@V?$allocator@PEAV?$basic_node@Umap_node_info@map@kmint@@@graph@kmint@@@std@@@std@@V?$_Uhash_compare@DU?$hash@D@std@@U?$equal_to@D@2@@2@V?$allocator@U?$pair@$$CBDV?$vector@PEAV?$basic_node@Umap_node_info@map@kmint@@@graph@kmint@@V?$allocator@PEAV?$basic_node@Umap_node_info@map@kmint@@@graph@kmint@@@std@@@std@@@std@@@2@$0A@@std@@SAAEBDAEBU?$pair@$$CBDV?$vector@PEAV?$basic_node@Umap_node_info@map@kmint@@@graph@kmint@@V?$allocator@PEAV?$basic_node@Umap_node_info@map@kmint@@@graph@kmint@@@std@@@std@@@1@@Z
	??$_Kfn@$$CBV?$basic_string@DU?$char_traits@D@std@@V?$allocator@D@2@@std@@Vtexture@sdl@ui@kmint@@@?$_Tmap_traits@V?$basic_string@DU?$char_traits@D@std@@V?$allocator@D@2@@std@@Vtexture@sdl@ui@kmint@@U?$less@V?$basic_string@DU?$char_traits@D@std@@V?$allocator@D@2@@std@@@2@V?$allocator@U?$pair@$$CBV?$basic_string@DU?$char_traits@D@std@@V?$allocator@D@2@@std@@Vtexture@sdl@ui@kmint@@@std@@@2@$0A@@std@@SAAEBV?$basic_string@DU?$char_traits@D@std@@V?$allocator@D@2@@1@AEBU?$pair@$$CBV?$basic_string@DU?$char_traits@D@std@@V?$allocator@D@2@@std@@Vtexture@sdl@ui@kmint@@@1@@Z
	??$_Lower_bound_duplicate@D@?$_Tree@V?$_Tmap_traits@DUtile_info@map@kmint@@U?$less@D@std@@V?$allocator@U?$pair@$$CBDUtile_info@map@kmint@@@std@@@5@$0A@@std@@@std@@IEBA_NQEAU?$_Tree_node@U?$pair@$$CBDUtile_info@map@kmint@@@std@@PEAX@1@AEBD@Z
	??$_Lower_bound_duplicate@V?$basic_string@DU?$char_traits@D@std@@V?$allocator@D@2@@std@@@?$_Tree@V?$_Tmap_traits@V?$basic_string@DU?$char_traits@D@std@@V?$allocator@D@2@@std@@Vtexture@sdl@ui@kmint@@U?$less@V?$basic_string@DU?$char_traits@D@std@@V?$allocator@D@2@@std@@@2@V?$allocator@U?$pair@$$CBV?$basic_string@DU?$char_traits@D@std@@V?$allocator@D@2@@std@@Vtexture@sdl@ui@kmint@@@std@@@2@$0A@@std@@@std@@IEBA_NQEAU?$_Tree_node@U?$pair@$$CBV?$basic_string@DU?$char_traits@D@std@@V?$allocator@D@2@@std@@Vtexture@sdl@ui@kmint@@@std@@PEAX@1@AEBV?$basic_string@DU?$char_traits@D@std@@V?$allocator@D@2@@1@@Z
	??$_Move_unchecked@PEAV?$unique_ptr@Vactor@play@kmint@@U?$default_delete@Vactor@play@kmint@@@std@@@std@@PEAV12@@std@@YAPEAV?$unique_ptr@Vactor@play@kmint@@U?$default_delete@Vactor@play@kmint@@@std@@@0@PEAV10@00@Z
	??$_Pocma@V?$allocator@D@std@@@std@@YAXAEAV?$allocator@D@0@0@Z
	??$_Reallocate_for@V<lambda_66f57f934f28d61049862f64df852ff0>@@PEBD@?$basic_string@DU?$char_traits@D@std@@V?$allocator@D@2@@std@@AEAAAEAV01@_KV<lambda_66f57f934f28d61049862f64df852ff0>@@PEBD@Z
	??$_Reallocate_grow_by@V<lambda_319d5e083f45f90dcdce5dce53cbb275>@@D@?$basic_string@DU?$char_traits@D@std@@V?$allocator@D@2@@std@@AEAAAEAV01@_KV<lambda_319d5e083f45f90dcdce5dce53cbb275>@@D@Z
	??$_Reallocate_grow_by@V<lambda_65e615be2a453ca0576c979606f46740>@@PEBD_K@?$basic_string@DU?$char_traits@D@std@@V?$allocator@D@2@@std@@AEAAAEAV01@_KV<lambda_65e615be2a453ca0576c979606f46740>@@PEBD_K@Z
	??$_Refancy@PEAV?$unique_ptr@Vactor@play@kmint@@U?$default_delete@Vactor@play@kmint@@@std@@@std@@$0A@@std@@YAPEAV?$unique_ptr@Vactor@play@kmint@@U?$default_delete@Vactor@play@kmint@@@std@@@0@PEAV10@@Z
	??$_Reset@P6AAEAV?$basic_node@Umap_node_info@map@kmint@@@graph@kmint@@AEBV?$unique_ptr@V?$basic_node@Umap_node_info@map@kmint@@@graph@kmint@@U?$default_delete@V?$basic_node@Umap_node_info@map@kmint@@@graph@kmint@@@std@@@std@@@Z@?$_Func_class@AEAV?$basic_node@Umap_node_info@map@kmint@@@graph@kmint@@AEAV?$unique_ptr@V?$basic_node@Umap_node_info@map@kmint@@@graph@kmint@@U?$default_delete@V?$basic_node@Umap_node_info@map@kmint@@@graph@kmint@@@std@@@std@@@std@@IEAAX$$QEAP6AAEAV?$basic_node@Umap_node_info@map@kmint@@@graph@kmint@@AEBV?$unique_ptr@V?$basic_node@Umap_node_info@map@kmint@@@graph@kmint@@U?$default_delete@V?$basic_node@Umap_node_info@map@kmint@@@graph@kmint@@@std@@@1@@Z@Z
	??$_Reset@P6AAEAVactor@play@kmint@@AEBV?$unique_ptr@Vactor@play@kmint@@U?$default_delete@Vactor@play@kmint@@@std@@@std@@@Z@?$_Func_class@AEAVactor@play@kmint@@AEAV?$unique_ptr@Vactor@play@kmint@@U?$default_delete@Vactor@play@kmint@@@std@@@std@@@std@@IEAAX$$QEAP6AAEAVactor@play@kmint@@AEBV?$unique_ptr@Vactor@play@kmint@@U?$default_delete@Vactor@play@kmint@@@std@@@1@@Z@Z
	??$_Reset@P6AAEBVactor@play@kmint@@AEBV?$unique_ptr@Vactor@play@kmint@@U?$default_delete@Vactor@play@kmint@@@std@@@std@@@Z@?$_Func_class@AEBVactor@play@kmint@@AEBV?$unique_ptr@Vactor@play@kmint@@U?$default_delete@Vactor@play@kmint@@@std@@@std@@@std@@IEAAX$$QEAP6AAEBVactor@play@kmint@@AEBV?$unique_ptr@Vactor@play@kmint@@U?$default_delete@Vactor@play@kmint@@@std@@@1@@Z@Z
	??$_Seek_wrapped@PEAV?$unique_ptr@Vactor@play@kmint@@U?$default_delete@Vactor@play@kmint@@@std@@@std@@AEAPEAV12@@std@@YAXAEAPEAV?$unique_ptr@Vactor@play@kmint@@U?$default_delete@Vactor@play@kmint@@@std@@@0@0@Z
	??$_Seek_wrapped@V?$_Vector_iterator@V?$_Vector_val@U?$_Simple_types@V?$unique_ptr@Vactor@play@kmint@@U?$default_delete@Vactor@play@kmint@@@std@@@std@@@std@@@std@@@std@@AEAPEAV?$unique_ptr@Vactor@play@kmint@@U?$default_delete@Vactor@play@kmint@@@std@@@2@@std@@YAXAEAV?$_Vector_iterator@V?$_Vector_val@U?$_Simple_types@V?$unique_ptr@Vactor@play@kmint@@U?$default_delete@Vactor@play@kmint@@@std@@@std@@@std@@@std@@@0@AEAPEAV?$unique_ptr@Vactor@play@kmint@@U?$default_delete@Vactor@play@kmint@@@std@@@0@@Z
	??$_Seek_wrapped@V?$back_insert_iterator@V?$vector@DV?$allocator@D@std@@@std@@@std@@V12@@std@@YAXAEAV?$back_insert_iterator@V?$vector@DV?$allocator@D@std@@@std@@@0@$$QEAV10@@Z
	??$_Test_callable@P6AAEAV?$basic_node@Umap_node_info@map@kmint@@@graph@kmint@@AEBV?$unique_ptr@V?$basic_node@Umap_node_info@map@kmint@@@graph@kmint@@U?$default_delete@V?$basic_node@Umap_node_info@map@kmint@@@graph@kmint@@@std@@@std@@@Z@std@@YA_NAEBQ6AAEAV?$basic_node@Umap_node_info@map@kmint@@@graph@kmint@@AEBV?$unique_ptr@V?$basic_node@Umap_node_info@map@kmint@@@graph@kmint@@U?$default_delete@V?$basic_node@Umap_node_info@map@kmint@@@graph@kmint@@@std@@@0@@Z@Z
	??$_Test_callable@P6AAEAVactor@play@kmint@@AEBV?$unique_ptr@Vactor@play@kmint@@U?$default_delete@Vactor@play@kmint@@@std@@@std@@@Z@std@@YA_NAEBQ6AAEAVactor@play@kmint@@AEBV?$unique_ptr@Vactor@play@kmint@@U?$default_delete@Vactor@play@kmint@@@std@@@0@@Z@Z
	??$_Test_callable@P6AAEBVactor@play@kmint@@AEBV?$unique_ptr@Vactor@play@kmint@@U?$default_delete@Vactor@play@kmint@@@std@@@std@@@Z@std@@YA_NAEBQ6AAEBVactor@play@kmint@@AEBV?$unique_ptr@Vactor@play@kmint@@U?$default_delete@Vactor@play@kmint@@@std@@@0@@Z@Z
	??$_Traits_compare@U?$char_traits@D@std@@@std@@YAHQEBD_K01@Z
	??$_Try_emplace@AEBD$$V@?$_Hash@V?$_Umap_traits@DV?$vector@PEAV?$basic_node@Umap_node_info@map@kmint@@@graph@kmint@@V?$allocator@PEAV?$basic_node@Umap_node_info@map@kmint@@@graph@kmint@@@std@@@std@@V?$_Uhash_compare@DU?$hash@D@std@@U?$equal_to@D@2@@2@V?$allocator@U?$pair@$$CBDV?$vector@PEAV?$basic_node@Umap_node_info@map@kmint@@@graph@kmint@@V?$allocator@PEAV?$basic_node@Umap_node_info@map@kmint@@@graph@kmint@@@std@@@std@@@std@@@2@$0A@@std@@@std@@IEAA?AU?$pair@PEAU?$_List_node@U?$pair@$$CBDV?$vector@PEAV?$basic_node@Umap_node_info@map@kmint@@@graph@kmint@@V?$allocator@PEAV?$basic_node@Umap_node_info@map@kmint@@@graph@kmint@@@std@@@std@@@std@@PEAX@std@@_N@1@AEBD@Z
	??$_Ucopy@PEAD@?$vector@DV?$allocator@D@std@@@std@@AEAAPEADPEAD00@Z
	??$_Unfancy@D@std@@YAPEADPEAD@Z
	??$_Unfancy@H@std@@YAPEAHPEAH@Z
	??$_Unfancy@PEAV?$basic_node@Umap_node_info@map@kmint@@@graph@kmint@@@std@@YAPEAPEAV?$basic_node@Umap_node_info@map@kmint@@@graph@kmint@@PEAPEAV123@@Z
	??$_Unfancy@PEAVactor@play@kmint@@@std@@YAPEAPEAVactor@play@kmint@@PEAPEAV123@@Z
	??$_Unfancy@U_Container_proxy@std@@@std@@YAPEAU_Container_proxy@0@PEAU10@@Z
	??$_Unfancy@V?$unique_ptr@V?$basic_edge@Umap_node_info@map@kmint@@@graph@kmint@@U?$default_delete@V?$basic_edge@Umap_node_info@map@kmint@@@graph@kmint@@@std@@@std@@@std@@YAPEAV?$unique_ptr@V?$basic_edge@Umap_node_info@map@kmint@@@graph@kmint@@U?$default_delete@V?$basic_edge@Umap_node_info@map@kmint@@@graph@kmint@@@std@@@0@PEAV10@@Z
	??$_Unfancy@V?$unique_ptr@V?$basic_edge@Uno_node_info@graph@kmint@@@graph@kmint@@U?$default_delete@V?$basic_edge@Uno_node_info@graph@kmint@@@graph@kmint@@@std@@@std@@@std@@YAPEAV?$unique_ptr@V?$basic_edge@Uno_node_info@graph@kmint@@@graph@kmint@@U?$default_delete@V?$basic_edge@Uno_node_info@graph@kmint@@@graph@kmint@@@std@@@0@PEAV10@@Z
	??$_Unfancy@V?$unique_ptr@V?$basic_node@Umap_node_info@map@kmint@@@graph@kmint@@U?$default_delete@V?$basic_node@Umap_node_info@map@kmint@@@graph@kmint@@@std@@@std@@@std@@YAPEAV?$unique_ptr@V?$basic_node@Umap_node_info@map@kmint@@@graph@kmint@@U?$default_delete@V?$basic_node@Umap_node_info@map@kmint@@@graph@kmint@@@std@@@0@PEAV10@@Z
	??$_Unfancy@V?$unique_ptr@V?$basic_node@Uno_node_info@graph@kmint@@@graph@kmint@@U?$default_delete@V?$basic_node@Uno_node_info@graph@kmint@@@graph@kmint@@@std@@@std@@@std@@YAPEAV?$unique_ptr@V?$basic_node@Uno_node_info@graph@kmint@@@graph@kmint@@U?$default_delete@V?$basic_node@Uno_node_info@graph@kmint@@@graph@kmint@@@std@@@0@PEAV10@@Z
	??$_Unfancy@V?$unique_ptr@Vactor@play@kmint@@U?$default_delete@Vactor@play@kmint@@@std@@@std@@@std@@YAPEAV?$unique_ptr@Vactor@play@kmint@@U?$default_delete@Vactor@play@kmint@@@std@@@0@PEAV10@@Z
	??$_Uninitialized_copy@PEADV?$allocator@D@std@@@std@@YAPEADQEAD0PEADAEAV?$allocator@D@0@@Z
	??$_Uninitialized_fill_n@V?$allocator@H@std@@@std@@YAPEAHPEAH_KAEBHAEAV?$allocator@H@0@@Z
	??$_Uninitialized_move@PEADV?$allocator@D@std@@@std@@YAPEADQEAD0PEADAEAV?$allocator@D@0@@Z
	??$_Uninitialized_move@PEAPEAV?$basic_node@Umap_node_info@map@kmint@@@graph@kmint@@V?$allocator@PEAV?$basic_node@Umap_node_info@map@kmint@@@graph@kmint@@@std@@@std@@YAPEAPEAV?$basic_node@Umap_node_info@map@kmint@@@graph@kmint@@QEAPEAV123@0PEAPEAV123@AEAV?$allocator@PEAV?$basic_node@Umap_node_info@map@kmint@@@graph@kmint@@@0@@Z
	??$_Uninitialized_move@PEAPEAVactor@play@kmint@@V?$allocator@PEAVactor@play@kmint@@@std@@@std@@YAPEAPEAVactor@play@kmint@@QEAPEAV123@0PEAPEAV123@AEAV?$allocator@PEAVactor@play@kmint@@@0@@Z
	??$_Uninitialized_move@PEAV?$unique_ptr@V?$basic_edge@Umap_node_info@map@kmint@@@graph@kmint@@U?$default_delete@V?$basic_edge@Umap_node_info@map@kmint@@@graph@kmint@@@std@@@std@@V?$allocator@V?$unique_ptr@V?$basic_edge@Umap_node_info@map@kmint@@@graph@kmint@@U?$default_delete@V?$basic_edge@Umap_node_info@map@kmint@@@graph@kmint@@@std@@@std@@@2@@std@@YAPEAV?$unique_ptr@V?$basic_edge@Umap_node_info@map@kmint@@@graph@kmint@@U?$default_delete@V?$basic_edge@Umap_node_info@map@kmint@@@graph@kmint@@@std@@@0@QEAV10@0PEAV10@AEAV?$allocator@V?$unique_ptr@V?$basic_edge@Umap_node_info@map@kmint@@@graph@kmint@@U?$default_delete@V?$basic_edge@Umap_node_info@map@kmint@@@graph@kmint@@@std@@@std@@@0@@Z
	??$_Uninitialized_move@PEAV?$unique_ptr@V?$basic_edge@Uno_node_info@graph@kmint@@@graph@kmint@@U?$default_delete@V?$basic_edge@Uno_node_info@graph@kmint@@@graph@kmint@@@std@@@std@@V?$allocator@V?$unique_ptr@V?$basic_edge@Uno_node_info@graph@kmint@@@graph@kmint@@U?$default_delete@V?$basic_edge@Uno_node_info@graph@kmint@@@graph@kmint@@@std@@@std@@@2@@std@@YAPEAV?$unique_ptr@V?$basic_edge@Uno_node_info@graph@kmint@@@graph@kmint@@U?$default_delete@V?$basic_edge@Uno_node_info@graph@kmint@@@graph@kmint@@@std@@@0@QEAV10@0PEAV10@AEAV?$allocator@V?$unique_ptr@V?$basic_edge@Uno_node_info@graph@kmint@@@graph@kmint@@U?$default_delete@V?$basic_edge@Uno_node_info@graph@kmint@@@graph@kmint@@@std@@@std@@@0@@Z
	??$_Uninitialized_move@PEAV?$unique_ptr@V?$basic_node@Umap_node_info@map@kmint@@@graph@kmint@@U?$default_delete@V?$basic_node@Umap_node_info@map@kmint@@@graph@kmint@@@std@@@std@@V?$allocator@V?$unique_ptr@V?$basic_node@Umap_node_info@map@kmint@@@graph@kmint@@U?$default_delete@V?$basic_node@Umap_node_info@map@kmint@@@graph@kmint@@@std@@@std@@@2@@std@@YAPEAV?$unique_ptr@V?$basic_node@Umap_node_info@map@kmint@@@graph@kmint@@U?$default_delete@V?$basic_node@Umap_node_info@map@kmint@@@graph@kmint@@@std@@@0@QEAV10@0PEAV10@AEAV?$allocator@V?$unique_ptr@V?$basic_node@Umap_node_info@map@kmint@@@graph@kmint@@U?$default_delete@V?$basic_node@Umap_node_info@map@kmint@@@graph@kmint@@@std@@@std@@@0@@Z
	??$_Uninitialized_move@PEAV?$unique_ptr@V?$basic_node@Uno_node_info@graph@kmint@@@graph@kmint@@U?$default_delete@V?$basic_node@Uno_node_info@graph@kmint@@@graph@kmint@@@std@@@std@@V?$allocator@V?$unique_ptr@V?$basic_node@Uno_node_info@graph@kmint@@@graph@kmint@@U?$default_delete@V?$basic_node@Uno_node_info@graph@kmint@@@graph@kmint@@@std@@@std@@@2@@std@@YAPEAV?$unique_ptr@V?$basic_node@Uno_node_info@graph@kmint@@@graph@kmint@@U?$default_delete@V?$basic_node@Uno_node_info@graph@kmint@@@graph@kmint@@@std@@@0@QEAV10@0PEAV10@AEAV?$allocator@V?$unique_ptr@V?$basic_node@Uno_node_info@graph@kmint@@@graph@kmint@@U?$default_delete@V?$basic_node@Uno_node_info@graph@kmint@@@graph@kmint@@@std@@@std@@@0@@Z
	??$_Variant_raw_get@$00AEAV?$_Variant_storage_@$0A@Ufree@?$quad_tree@$03@play@kmint@@Usaturated@234@@std@@@std@@YAAEAUsaturated@?$quad_tree@$03@play@kmint@@AEAV?$_Variant_storage_@$0A@Ufree@?$quad_tree@$03@play@kmint@@Usaturated@234@@0@@Z
	??$_Variant_raw_get@$00AEBV?$_Variant_storage_@$0A@Ufree@?$quad_tree@$03@play@kmint@@Usaturated@234@@std@@@std@@YAAEBUsaturated@?$quad_tree@$03@play@kmint@@AEBV?$_Variant_storage_@$0A@Ufree@?$quad_tree@$03@play@kmint@@Usaturated@234@@0@@Z
	??$_Variant_raw_get@$0A@AEAV?$_Variant_storage_@$0A@Ufree@?$quad_tree@$03@play@kmint@@Usaturated@234@@std@@@std@@YAAEAUfree@?$quad_tree@$03@play@kmint@@AEAV?$_Variant_storage_@$0A@Ufree@?$quad_tree@$03@play@kmint@@Usaturated@234@@0@@Z
	??$_Variant_raw_get@$0A@AEBV?$_Variant_storage_@$0A@Ufree@?$quad_tree@$03@play@kmint@@Usaturated@234@@std@@@std@@YAAEBUfree@?$quad_tree@$03@play@kmint@@AEBV?$_Variant_storage_@$0A@Ufree@?$quad_tree@$03@play@kmint@@Usaturated@234@@0@@Z
	??$_Variant_raw_visit@AEAV?$_Variant_storage_@$0A@Ufree@?$quad_tree@$03@play@kmint@@Usaturated@234@@std@@V<lambda_5a0776a30ffab3a3304c68c760f76a39>@@@std@@YAX_KAEAV?$_Variant_storage_@$0A@Ufree@?$quad_tree@$03@play@kmint@@Usaturated@234@@0@$$QEAV<lambda_5a0776a30ffab3a3304c68c760f76a39>@@@Z
	??$_Variant_visit_index1@V?$variant@Ufree@?$quad_tree@$03@play@kmint@@Usaturated@234@@std@@$$V@std@@YA_K_KAEBV?$variant@Ufree@?$quad_tree@$03@play@kmint@@Usaturated@234@@0@@Z
	??$_Verify_range@V?$_List_unchecked_iterator@V?$_List_val@U?$_List_simple_types@U?$pair@$$CBDV?$vector@PEAV?$basic_node@Umap_node_info@map@kmint@@@graph@kmint@@V?$allocator@PEAV?$basic_node@Umap_node_info@map@kmint@@@graph@kmint@@@std@@@std@@@std@@@std@@@std@@@std@@@std@@YAXQEBV?$_List_unchecked_iterator@V?$_List_val@U?$_List_simple_types@U?$pair@$$CBDV?$vector@PEAV?$basic_node@Umap_node_info@map@kmint@@@graph@kmint@@V?$allocator@PEAV?$basic_node@Umap_node_info@map@kmint@@@graph@kmint@@@std@@@std@@@std@@@std@@@std@@@0@0@Z
	??$_Verify_range@V?$unique_ptr@Vactor@play@kmint@@U?$default_delete@Vactor@play@kmint@@@std@@@std@@@std@@YAXQEBV?$unique_ptr@Vactor@play@kmint@@U?$default_delete@Vactor@play@kmint@@@std@@@0@0@Z
	??$_Visit2@V?$optional@Usaturated@?$quad_tree@$03@play@kmint@@@std@@U?$_Meta_list@U?$integer_sequence@_K$0A@@std@@U?$integer_sequence@_K$00@2@U?$integer_sequence@_K$01@2@@2@U?$overload@V<lambda_ad2beb13dbb0cf610997dab0ec383f8b>@@V<lambda_c23fc6e423333c95ae20a61e475ddf2a>@@@kmint@@AEAV?$variant@Ufree@?$quad_tree@$03@play@kmint@@Usaturated@234@@2@@?$_Visit_strategy@$00@std@@SA?AV?$optional@Usaturated@?$quad_tree@$03@play@kmint@@@1@_K$$QEAU?$overload@V<lambda_ad2beb13dbb0cf610997dab0ec383f8b>@@V<lambda_c23fc6e423333c95ae20a61e475ddf2a>@@@kmint@@AEAV?$variant@Ufree@?$quad_tree@$03@play@kmint@@Usaturated@234@@1@@Z
	??$_Visit2@XU?$_Meta_list@U?$integer_sequence@_K$0A@@std@@U?$integer_sequence@_K$00@2@U?$integer_sequence@_K$01@2@@std@@U?$overload@V<lambda_1523b8ddba63e718f43ea97c9e0b26ab>@@V<lambda_29327d9d9fb0be4adcefd7095d0faa01>@@@kmint@@AEBV?$variant@Ufree@?$quad_tree@$03@play@kmint@@Usaturated@234@@2@@?$_Visit_strategy@$00@std@@SAX_K$$QEAU?$overload@V<lambda_1523b8ddba63e718f43ea97c9e0b26ab>@@V<lambda_29327d9d9fb0be4adcefd7095d0faa01>@@@kmint@@AEBV?$variant@Ufree@?$quad_tree@$03@play@kmint@@Usaturated@234@@1@@Z
	??$_Visit2@XU?$_Meta_list@U?$integer_sequence@_K$0A@@std@@U?$integer_sequence@_K$00@2@U?$integer_sequence@_K$01@2@@std@@U?$overload@V<lambda_5e603f1a4bce7b3b42fb0d0c3f008067>@@V<lambda_5b573ddf20ab6b8c519541572a849e86>@@@kmint@@AEBV?$variant@Ufree@?$quad_tree@$03@play@kmint@@Usaturated@234@@2@@?$_Visit_strategy@$00@std@@SAX_K$$QEAU?$overload@V<lambda_5e603f1a4bce7b3b42fb0d0c3f008067>@@V<lambda_5b573ddf20ab6b8c519541572a849e86>@@@kmint@@AEBV?$variant@Ufree@?$quad_tree@$03@play@kmint@@Usaturated@234@@1@@Z
	??$_Visit@V<lambda_5a0776a30ffab3a3304c68c760f76a39>@@AEAV?$_Variant_storage_@$0A@Ufree@?$quad_tree@$03@play@kmint@@Usaturated@234@@std@@@?$_Variant_raw_visit1@$00@std@@SAX_K$$QEAV<lambda_5a0776a30ffab3a3304c68c760f76a39>@@AEAV?$_Variant_storage_@$0A@Ufree@?$quad_tree@$03@play@kmint@@Usaturated@234@@1@@Z
	??$_Visit_impl@$02V?$optional@Usaturated@?$quad_tree@$03@play@kmint@@@std@@U?$_Meta_list@U?$integer_sequence@_K$0A@@std@@U?$integer_sequence@_K$00@2@U?$integer_sequence@_K$01@2@@2@U?$overload@V<lambda_ad2beb13dbb0cf610997dab0ec383f8b>@@V<lambda_c23fc6e423333c95ae20a61e475ddf2a>@@@kmint@@AEAV?$variant@Ufree@?$quad_tree@$03@play@kmint@@Usaturated@234@@2@@std@@YA?AV?$optional@Usaturated@?$quad_tree@$03@play@kmint@@@0@$$QEAU?$overload@V<lambda_ad2beb13dbb0cf610997dab0ec383f8b>@@V<lambda_c23fc6e423333c95ae20a61e475ddf2a>@@@kmint@@AEAV?$variant@Ufree@?$quad_tree@$03@play@kmint@@Usaturated@234@@0@@Z
	??$_Visit_impl@$02XU?$_Meta_list@U?$integer_sequence@_K$0A@@std@@U?$integer_sequence@_K$00@2@U?$integer_sequence@_K$01@2@@std@@U?$overload@V<lambda_1523b8ddba63e718f43ea97c9e0b26ab>@@V<lambda_29327d9d9fb0be4adcefd7095d0faa01>@@@kmint@@AEBV?$variant@Ufree@?$quad_tree@$03@play@kmint@@Usaturated@234@@2@@std@@YAX$$QEAU?$overload@V<lambda_1523b8ddba63e718f43ea97c9e0b26ab>@@V<lambda_29327d9d9fb0be4adcefd7095d0faa01>@@@kmint@@AEBV?$variant@Ufree@?$quad_tree@$03@play@kmint@@Usaturated@234@@0@@Z
	??$_Visit_impl@$02XU?$_Meta_list@U?$integer_sequence@_K$0A@@std@@U?$integer_sequence@_K$00@2@U?$integer_sequence@_K$01@2@@std@@U?$overload@V<lambda_5e603f1a4bce7b3b42fb0d0c3f008067>@@V<lambda_5b573ddf20ab6b8c519541572a849e86>@@@kmint@@AEBV?$variant@Ufree@?$quad_tree@$03@play@kmint@@Usaturated@234@@2@@std@@YAX$$QEAU?$overload@V<lambda_5e603f1a4bce7b3b42fb0d0c3f008067>@@V<lambda_5b573ddf20ab6b8c519541572a849e86>@@@kmint@@AEBV?$variant@Ufree@?$quad_tree@$03@play@kmint@@Usaturated@234@@0@@Z
	??$addressof@$$CBV?$_String_val@U?$_Simple_types@D@std@@@std@@@std@@YAPEBV?$_String_val@U?$_Simple_types@D@std@@@0@AEBV10@@Z
	??$addressof@$$CBV?$_Tree_val@U?$_Tree_simple_types@U?$pair@$$CBDUtile_info@map@kmint@@@std@@@std@@@std@@@std@@YAPEBV?$_Tree_val@U?$_Tree_simple_types@U?$pair@$$CBDUtile_info@map@kmint@@@std@@@std@@@0@AEBV10@@Z
	??$addressof@$$CBV?$_Tree_val@U?$_Tree_simple_types@U?$pair@$$CBV?$basic_string@DU?$char_traits@D@std@@V?$allocator@D@2@@std@@Vtexture@sdl@ui@kmint@@@std@@@std@@@std@@@std@@YAPEBV?$_Tree_val@U?$_Tree_simple_types@U?$pair@$$CBV?$basic_string@DU?$char_traits@D@std@@V?$allocator@D@2@@std@@Vtexture@sdl@ui@kmint@@@std@@@std@@@0@AEBV10@@Z
	??$addressof@$$CBV?$_Vector_val@U?$_Simple_types@V?$unique_ptr@Vactor@play@kmint@@U?$default_delete@Vactor@play@kmint@@@std@@@std@@@std@@@std@@@std@@YAPEBV?$_Vector_val@U?$_Simple_types@V?$unique_ptr@Vactor@play@kmint@@U?$default_delete@Vactor@play@kmint@@@std@@@std@@@std@@@0@AEBV10@@Z
	??$addressof@D@std@@YAPEADAEAD@Z
	??$addressof@PEAD@std@@YAPEAPEADAEAPEAD@Z
	??$addressof@PEAU?$_List_node@U?$pair@$$CBDV?$vector@PEAV?$basic_node@Umap_node_info@map@kmint@@@graph@kmint@@V?$allocator@PEAV?$basic_node@Umap_node_info@map@kmint@@@graph@kmint@@@std@@@std@@@std@@PEAX@std@@@std@@YAPEAPEAU?$_List_node@U?$pair@$$CBDV?$vector@PEAV?$basic_node@Umap_node_info@map@kmint@@@graph@kmint@@V?$allocator@PEAV?$basic_node@Umap_node_info@map@kmint@@@graph@kmint@@@std@@@std@@@std@@PEAX@0@AEAPEAU10@@Z
	??$addressof@PEAU?$_Tree_node@U?$pair@$$CBDUtile_info@map@kmint@@@std@@PEAX@std@@@std@@YAPEAPEAU?$_Tree_node@U?$pair@$$CBDUtile_info@map@kmint@@@std@@PEAX@0@AEAPEAU10@@Z
	??$addressof@PEAU?$_Tree_node@U?$pair@$$CBV?$basic_string@DU?$char_traits@D@std@@V?$allocator@D@2@@std@@Vtexture@sdl@ui@kmint@@@std@@PEAX@std@@@std@@YAPEAPEAU?$_Tree_node@U?$pair@$$CBV?$basic_string@DU?$char_traits@D@std@@V?$allocator@D@2@@std@@Vtexture@sdl@ui@kmint@@@std@@PEAX@0@AEAPEAU10@@Z
	??$addressof@Q6AAEAV?$basic_node@Umap_node_info@map@kmint@@@graph@kmint@@AEBV?$unique_ptr@V?$basic_node@Umap_node_info@map@kmint@@@graph@kmint@@U?$default_delete@V?$basic_node@Umap_node_info@map@kmint@@@graph@kmint@@@std@@@std@@@Z@std@@YAPEBQ6AAEAV?$basic_node@Umap_node_info@map@kmint@@@graph@kmint@@AEBV?$unique_ptr@V?$basic_node@Umap_node_info@map@kmint@@@graph@kmint@@U?$default_delete@V?$basic_node@Umap_node_info@map@kmint@@@graph@kmint@@@std@@@0@@ZAEBQ6AAEAV123@0@Z@Z
	??$addressof@Q6AAEAVactor@play@kmint@@AEBV?$unique_ptr@Vactor@play@kmint@@U?$default_delete@Vactor@play@kmint@@@std@@@std@@@Z@std@@YAPEBQ6AAEAVactor@play@kmint@@AEBV?$unique_ptr@Vactor@play@kmint@@U?$default_delete@Vactor@play@kmint@@@std@@@0@@ZAEBQ6AAEAV123@0@Z@Z
	??$addressof@Q6AAEBVactor@play@kmint@@AEBV?$unique_ptr@Vactor@play@kmint@@U?$default_delete@Vactor@play@kmint@@@std@@@std@@@Z@std@@YAPEBQ6AAEBVactor@play@kmint@@AEBV?$unique_ptr@Vactor@play@kmint@@U?$default_delete@Vactor@play@kmint@@@std@@@0@@ZAEBQ6AAEBV123@0@Z@Z
	??$addressof@U?$pair@$$CBDUtile_info@map@kmint@@@std@@@std@@YAPEAU?$pair@$$CBDUtile_info@map@kmint@@@0@AEAU10@@Z
	??$addressof@U?$pair@$$CBDV?$vector@PEAV?$basic_node@Umap_node_info@map@kmint@@@graph@kmint@@V?$allocator@PEAV?$basic_node@Umap_node_info@map@kmint@@@graph@kmint@@@std@@@std@@@std@@@std@@YAPEAU?$pair@$$CBDV?$vector@PEAV?$basic_node@Umap_node_info@map@kmint@@@graph@kmint@@V?$allocator@PEAV?$basic_node@Umap_node_info@map@kmint@@@graph@kmint@@@std@@@std@@@0@AEAU10@@Z
	??$addressof@U?$pair@$$CBV?$basic_string@DU?$char_traits@D@std@@V?$allocator@D@2@@std@@Vtexture@sdl@ui@kmint@@@std@@@std@@YAPEAU?$pair@$$CBV?$basic_string@DU?$char_traits@D@std@@V?$allocator@D@2@@std@@Vtexture@sdl@ui@kmint@@@0@AEAU10@@Z
	??$addressof@U_Container_base12@std@@@std@@YAPEAU_Container_base12@0@AEAU10@@Z
	??$addressof@U_Container_proxy@std@@@std@@YAPEAU_Container_proxy@0@AEAU10@@Z
	??$addressof@Usaturated@?$quad_tree@$03@play@kmint@@@std@@YAPEAUsaturated@?$quad_tree@$03@play@kmint@@AEAU1234@@Z
	??$addressof@V?$_List_unchecked_iterator@V?$_List_val@U?$_List_simple_types@U?$pair@$$CBDV?$vector@PEAV?$basic_node@Umap_node_info@map@kmint@@@graph@kmint@@V?$allocator@PEAV?$basic_node@Umap_node_info@map@kmint@@@graph@kmint@@@std@@@std@@@std@@@std@@@std@@@std@@@std@@YAPEAV?$_List_unchecked_iterator@V?$_List_val@U?$_List_simple_types@U?$pair@$$CBDV?$vector@PEAV?$basic_node@Umap_node_info@map@kmint@@@graph@kmint@@V?$allocator@PEAV?$basic_node@Umap_node_info@map@kmint@@@graph@kmint@@@std@@@std@@@std@@@std@@@std@@@0@AEAV10@@Z
	??$addressof@V?$_String_val@U?$_Simple_types@D@std@@@std@@@std@@YAPEAV?$_String_val@U?$_Simple_types@D@std@@@0@AEAV10@@Z
	??$addressof@V?$_Tree_val@U?$_Tree_simple_types@U?$pair@$$CBDUtile_info@map@kmint@@@std@@@std@@@std@@@std@@YAPEAV?$_Tree_val@U?$_Tree_simple_types@U?$pair@$$CBDUtile_info@map@kmint@@@std@@@std@@@0@AEAV10@@Z
	??$addressof@V?$_Tree_val@U?$_Tree_simple_types@U?$pair@$$CBV?$basic_string@DU?$char_traits@D@std@@V?$allocator@D@2@@std@@Vtexture@sdl@ui@kmint@@@std@@@std@@@std@@@std@@YAPEAV?$_Tree_val@U?$_Tree_simple_types@U?$pair@$$CBV?$basic_string@DU?$char_traits@D@std@@V?$allocator@D@2@@std@@Vtexture@sdl@ui@kmint@@@std@@@std@@@0@AEAV10@@Z
	??$addressof@V?$_Vector_val@U?$_Simple_types@V?$unique_ptr@V?$basic_node@Umap_node_info@map@kmint@@@graph@kmint@@U?$default_delete@V?$basic_node@Umap_node_info@map@kmint@@@graph@kmint@@@std@@@std@@@std@@@std@@@std@@YAPEAV?$_Vector_val@U?$_Simple_types@V?$unique_ptr@V?$basic_node@Umap_node_info@map@kmint@@@graph@kmint@@U?$default_delete@V?$basic_node@Umap_node_info@map@kmint@@@graph@kmint@@@std@@@std@@@std@@@0@AEAV10@@Z
	??$addressof@V?$_Vector_val@U?$_Simple_types@V?$unique_ptr@Vactor@play@kmint@@U?$default_delete@Vactor@play@kmint@@@std@@@std@@@std@@@std@@@std@@YAPEAV?$_Vector_val@U?$_Simple_types@V?$unique_ptr@Vactor@play@kmint@@U?$default_delete@Vactor@play@kmint@@@std@@@std@@@std@@@0@AEAV10@@Z
	??$addressof@V?$basic_istream@DU?$char_traits@D@std@@@std@@@std@@YAPEAV?$basic_istream@DU?$char_traits@D@std@@@0@AEAV10@@Z
	??$addressof@V?$basic_string@DU?$char_traits@D@std@@V?$allocator@D@2@@std@@@std@@YAPEAV?$basic_string@DU?$char_traits@D@std@@V?$allocator@D@2@@0@AEAV10@@Z
	??$addressof@V?$basic_stringbuf@DU?$char_traits@D@std@@V?$allocator@D@2@@std@@@std@@YAPEAV?$basic_stringbuf@DU?$char_traits@D@std@@V?$allocator@D@2@@0@AEAV10@@Z
	??$addressof@V?$unique_ptr@Uimpl@frame@ui@kmint@@U?$default_delete@Uimpl@frame@ui@kmint@@@std@@@std@@@std@@YAPEAV?$unique_ptr@Uimpl@frame@ui@kmint@@U?$default_delete@Uimpl@frame@ui@kmint@@@std@@@0@AEAV10@@Z
	??$addressof@V?$unique_ptr@V?$quad_tree@$03@play@kmint@@U?$default_delete@V?$quad_tree@$03@play@kmint@@@std@@@std@@@std@@YAPEAV?$unique_ptr@V?$quad_tree@$03@play@kmint@@U?$default_delete@V?$quad_tree@$03@play@kmint@@@std@@@0@AEAV10@@Z
	??$addressof@V?$unique_ptr@Vactor@play@kmint@@U?$default_delete@Vactor@play@kmint@@@std@@@std@@@std@@YAPEAV?$unique_ptr@Vactor@play@kmint@@U?$default_delete@Vactor@play@kmint@@@std@@@0@AEAV10@@Z
	??$addressof@V?$unique_ptr@Vimpl@app@ui@kmint@@U?$default_delete@Vimpl@app@ui@kmint@@@std@@@std@@@std@@YAPEAV?$unique_ptr@Vimpl@app@ui@kmint@@U?$default_delete@Vimpl@app@ui@kmint@@@std@@@0@AEAV10@@Z
	??$addressof@V?$unique_ptr@Vimpl@window@ui@kmint@@U?$default_delete@Vimpl@window@ui@kmint@@@std@@@std@@@std@@YAPEAV?$unique_ptr@Vimpl@window@ui@kmint@@U?$default_delete@Vimpl@window@ui@kmint@@@std@@@0@AEAV10@@Z
	??$addressof@V?$vector@DV?$allocator@D@std@@@std@@@std@@YAPEAV?$vector@DV?$allocator@D@std@@@0@AEAV10@@Z
	??$apply_rgb@A6AHPEAUSDL_Texture@@EEE@ZPEAU1@@sdl@ui@kmint@@YAHA6AHPEAUSDL_Texture@@EEE@ZVcolor@graphics@2@$$QEAPEAU3@@Z
	??$apply_rgba@A6AHPEAUSDL_Renderer@@EEEE@ZPEAU1@@sdl@ui@kmint@@YAHA6AHPEAUSDL_Renderer@@EEEE@ZVcolor@graphics@2@$$QEAPEAU3@@Z
	??$back_inserter@V?$vector@DV?$allocator@D@std@@@std@@@std@@YA?AV?$back_insert_iterator@V?$vector@DV?$allocator@D@std@@@std@@@0@AEAV?$vector@DV?$allocator@D@std@@@0@@Z
	??$center@M@math@kmint@@YA?AV?$basic_vector2d@M@01@AEBV?$basic_rectangle@M@01@@Z
	??$construct@DAEBD@?$_Default_allocator_traits@V?$allocator@D@std@@@std@@SAXAEAV?$allocator@D@1@QEADAEBD@Z
	??$construct@HAEBH@?$_Default_allocator_traits@V?$allocator@H@std@@@std@@SAXAEAV?$allocator@H@1@QEAHAEBH@Z
	??$construct@PEAV?$basic_node@Umap_node_info@map@kmint@@@graph@kmint@@PEAV123@@?$_Default_allocator_traits@V?$allocator@PEAV?$basic_node@Umap_node_info@map@kmint@@@graph@kmint@@@std@@@std@@SAXAEAV?$allocator@PEAV?$basic_node@Umap_node_info@map@kmint@@@graph@kmint@@@1@QEAPEAV?$basic_node@Umap_node_info@map@kmint@@@graph@kmint@@$$QEAPEAV345@@Z
	??$construct@PEAVactor@play@kmint@@AEBQEAV123@@?$_Default_allocator_traits@V?$allocator@PEAVactor@play@kmint@@@std@@@std@@SAXAEAV?$allocator@PEAVactor@play@kmint@@@1@QEAPEAVactor@play@kmint@@AEBQEAV345@@Z
	??$construct@PEAVactor@play@kmint@@PEAV123@@?$_Default_allocator_traits@V?$allocator@PEAVactor@play@kmint@@@std@@@std@@SAXAEAV?$allocator@PEAVactor@play@kmint@@@1@QEAPEAVactor@play@kmint@@$$QEAPEAV345@@Z
	??$construct@U?$pair@$$CBDUtile_info@map@kmint@@@std@@AEADAEAUtile_info@map@kmint@@@?$_Default_allocator_traits@V?$allocator@U?$_Tree_node@U?$pair@$$CBDUtile_info@map@kmint@@@std@@PEAX@std@@@std@@@std@@SAXAEAV?$allocator@U?$_Tree_node@U?$pair@$$CBDUtile_info@map@kmint@@@std@@PEAX@std@@@1@QEAU?$pair@$$CBDUtile_info@map@kmint@@@1@AEADAEAUtile_info@map@kmint@@@Z
	??$construct@U?$pair@$$CBDUtile_info@map@kmint@@@std@@AEAU12@@?$_Default_allocator_traits@V?$allocator@U?$_Tree_node@U?$pair@$$CBDUtile_info@map@kmint@@@std@@PEAX@std@@@std@@@std@@SAXAEAV?$allocator@U?$_Tree_node@U?$pair@$$CBDUtile_info@map@kmint@@@std@@PEAX@std@@@1@QEAU?$pair@$$CBDUtile_info@map@kmint@@@1@AEAU31@@Z
	??$construct@U?$pair@$$CBDV?$vector@PEAV?$basic_node@Umap_node_info@map@kmint@@@graph@kmint@@V?$allocator@PEAV?$basic_node@Umap_node_info@map@kmint@@@graph@kmint@@@std@@@std@@@std@@AEBUpiecewise_construct_t@2@V?$tuple@AEBD@2@V?$tuple@$$V@2@@?$_Default_allocator_traits@V?$allocator@U?$_List_node@U?$pair@$$CBDV?$vector@PEAV?$basic_node@Umap_node_info@map@kmint@@@graph@kmint@@V?$allocator@PEAV?$basic_node@Umap_node_info@map@kmint@@@graph@kmint@@@std@@@std@@@std@@PEAX@std@@@std@@@std@@SAXAEAV?$allocator@U?$_List_node@U?$pair@$$CBDV?$vector@PEAV?$basic_node@Umap_node_info@map@kmint@@@graph@kmint@@V?$allocator@PEAV?$basic_node@Umap_node_info@map@kmint@@@graph@kmint@@@std@@@std@@@std@@PEAX@std@@@1@QEAU?$pair@$$CBDV?$vector@PEAV?$basic_node@Umap_node_info@map@kmint@@@graph@kmint@@V?$allocator@PEAV?$basic_node@Umap_node_info@map@kmint@@@graph@kmint@@@std@@@std@@@1@AEBUpiecewise_construct_t@1@$$QEAV?$tuple@AEBD@1@$$QEAV?$tuple@$$V@1@@Z
	??$construct@U?$pair@$$CBV?$basic_string@DU?$char_traits@D@std@@V?$allocator@D@2@@std@@Vtexture@sdl@ui@kmint@@@std@@U?$pair@V?$basic_string@DU?$char_traits@D@std@@V?$allocator@D@2@@std@@Vtexture@sdl@ui@kmint@@@2@@?$_Default_allocator_traits@V?$allocator@U?$_Tree_node@U?$pair@$$CBV?$basic_string@DU?$char_traits@D@std@@V?$allocator@D@2@@std@@Vtexture@sdl@ui@kmint@@@std@@PEAX@std@@@std@@@std@@SAXAEAV?$allocator@U?$_Tree_node@U?$pair@$$CBV?$basic_string@DU?$char_traits@D@std@@V?$allocator@D@2@@std@@Vtexture@sdl@ui@kmint@@@std@@PEAX@std@@@1@QEAU?$pair@$$CBV?$basic_string@DU?$char_traits@D@std@@V?$allocator@D@2@@std@@Vtexture@sdl@ui@kmint@@@1@$$QEAU?$pair@V?$basic_string@DU?$char_traits@D@std@@V?$allocator@D@2@@std@@Vtexture@sdl@ui@kmint@@@1@@Z
	??$construct@V?$unique_ptr@V?$basic_edge@Umap_node_info@map@kmint@@@graph@kmint@@U?$default_delete@V?$basic_edge@Umap_node_info@map@kmint@@@graph@kmint@@@std@@@std@@V12@@?$_Default_allocator_traits@V?$allocator@V?$unique_ptr@V?$basic_edge@Umap_node_info@map@kmint@@@graph@kmint@@U?$default_delete@V?$basic_edge@Umap_node_info@map@kmint@@@graph@kmint@@@std@@@std@@@std@@@std@@SAXAEAV?$allocator@V?$unique_ptr@V?$basic_edge@Umap_node_info@map@kmint@@@graph@kmint@@U?$default_delete@V?$basic_edge@Umap_node_info@map@kmint@@@graph@kmint@@@std@@@std@@@1@QEAV?$unique_ptr@V?$basic_edge@Umap_node_info@map@kmint@@@graph@kmint@@U?$default_delete@V?$basic_edge@Umap_node_info@map@kmint@@@graph@kmint@@@std@@@1@$$QEAV31@@Z
	??$construct@V?$unique_ptr@V?$basic_edge@Uno_node_info@graph@kmint@@@graph@kmint@@U?$default_delete@V?$basic_edge@Uno_node_info@graph@kmint@@@graph@kmint@@@std@@@std@@V12@@?$_Default_allocator_traits@V?$allocator@V?$unique_ptr@V?$basic_edge@Uno_node_info@graph@kmint@@@graph@kmint@@U?$default_delete@V?$basic_edge@Uno_node_info@graph@kmint@@@graph@kmint@@@std@@@std@@@std@@@std@@SAXAEAV?$allocator@V?$unique_ptr@V?$basic_edge@Uno_node_info@graph@kmint@@@graph@kmint@@U?$default_delete@V?$basic_edge@Uno_node_info@graph@kmint@@@graph@kmint@@@std@@@std@@@1@QEAV?$unique_ptr@V?$basic_edge@Uno_node_info@graph@kmint@@@graph@kmint@@U?$default_delete@V?$basic_edge@Uno_node_info@graph@kmint@@@graph@kmint@@@std@@@1@$$QEAV31@@Z
	??$construct@V?$unique_ptr@V?$basic_node@Umap_node_info@map@kmint@@@graph@kmint@@U?$default_delete@V?$basic_node@Umap_node_info@map@kmint@@@graph@kmint@@@std@@@std@@PEAV?$basic_node@Umap_node_info@map@kmint@@@graph@kmint@@@?$_Default_allocator_traits@V?$allocator@V?$unique_ptr@V?$basic_node@Umap_node_info@map@kmint@@@graph@kmint@@U?$default_delete@V?$basic_node@Umap_node_info@map@kmint@@@graph@kmint@@@std@@@std@@@std@@@std@@SAXAEAV?$allocator@V?$unique_ptr@V?$basic_node@Umap_node_info@map@kmint@@@graph@kmint@@U?$default_delete@V?$basic_node@Umap_node_info@map@kmint@@@graph@kmint@@@std@@@std@@@1@QEAV?$unique_ptr@V?$basic_node@Umap_node_info@map@kmint@@@graph@kmint@@U?$default_delete@V?$basic_node@Umap_node_info@map@kmint@@@graph@kmint@@@std@@@1@$$QEAPEAV?$basic_node@Umap_node_info@map@kmint@@@graph@kmint@@@Z
	??$construct@V?$unique_ptr@V?$basic_node@Umap_node_info@map@kmint@@@graph@kmint@@U?$default_delete@V?$basic_node@Umap_node_info@map@kmint@@@graph@kmint@@@std@@@std@@V12@@?$_Default_allocator_traits@V?$allocator@V?$unique_ptr@V?$basic_node@Umap_node_info@map@kmint@@@graph@kmint@@U?$default_delete@V?$basic_node@Umap_node_info@map@kmint@@@graph@kmint@@@std@@@std@@@std@@@std@@SAXAEAV?$allocator@V?$unique_ptr@V?$basic_node@Umap_node_info@map@kmint@@@graph@kmint@@U?$default_delete@V?$basic_node@Umap_node_info@map@kmint@@@graph@kmint@@@std@@@std@@@1@QEAV?$unique_ptr@V?$basic_node@Umap_node_info@map@kmint@@@graph@kmint@@U?$default_delete@V?$basic_node@Umap_node_info@map@kmint@@@graph@kmint@@@std@@@1@$$QEAV31@@Z
	??$construct@V?$unique_ptr@V?$basic_node@Uno_node_info@graph@kmint@@@graph@kmint@@U?$default_delete@V?$basic_node@Uno_node_info@graph@kmint@@@graph@kmint@@@std@@@std@@PEAV?$basic_node@Uno_node_info@graph@kmint@@@graph@kmint@@@?$_Default_allocator_traits@V?$allocator@V?$unique_ptr@V?$basic_node@Uno_node_info@graph@kmint@@@graph@kmint@@U?$default_delete@V?$basic_node@Uno_node_info@graph@kmint@@@graph@kmint@@@std@@@std@@@std@@@std@@SAXAEAV?$allocator@V?$unique_ptr@V?$basic_node@Uno_node_info@graph@kmint@@@graph@kmint@@U?$default_delete@V?$basic_node@Uno_node_info@graph@kmint@@@graph@kmint@@@std@@@std@@@1@QEAV?$unique_ptr@V?$basic_node@Uno_node_info@graph@kmint@@@graph@kmint@@U?$default_delete@V?$basic_node@Uno_node_info@graph@kmint@@@graph@kmint@@@std@@@1@$$QEAPEAV?$basic_node@Uno_node_info@graph@kmint@@@graph@kmint@@@Z
	??$construct@V?$unique_ptr@V?$basic_node@Uno_node_info@graph@kmint@@@graph@kmint@@U?$default_delete@V?$basic_node@Uno_node_info@graph@kmint@@@graph@kmint@@@std@@@std@@V12@@?$_Default_allocator_traits@V?$allocator@V?$unique_ptr@V?$basic_node@Uno_node_info@graph@kmint@@@graph@kmint@@U?$default_delete@V?$basic_node@Uno_node_info@graph@kmint@@@graph@kmint@@@std@@@std@@@std@@@std@@SAXAEAV?$allocator@V?$unique_ptr@V?$basic_node@Uno_node_info@graph@kmint@@@graph@kmint@@U?$default_delete@V?$basic_node@Uno_node_info@graph@kmint@@@graph@kmint@@@std@@@std@@@1@QEAV?$unique_ptr@V?$basic_node@Uno_node_info@graph@kmint@@@graph@kmint@@U?$default_delete@V?$basic_node@Uno_node_info@graph@kmint@@@graph@kmint@@@std@@@1@$$QEAV31@@Z
	??$contains@M@math@kmint@@YA_NAEBV?$basic_rectangle@M@01@AEBV?$basic_vector2d@M@01@@Z
	??$copy@V?$istream_iterator@DDU?$char_traits@D@std@@_J@std@@V?$back_insert_iterator@V?$vector@DV?$allocator@D@std@@@std@@@2@@std@@YA?AV?$back_insert_iterator@V?$vector@DV?$allocator@D@std@@@std@@@0@V?$istream_iterator@DDU?$char_traits@D@std@@_J@0@0V10@@Z
	??$create@A6APEAUSDL_Renderer@@PEAUSDL_Window@@HI@ZAEAPEAU2@HW4SDL_RendererFlags@@@sdl@ui@kmint@@YAPEAUSDL_Renderer@@A6APEAU3@PEAUSDL_Window@@HI@ZAEAPEAU4@$$QEAH$$QEAW4SDL_RendererFlags@@@Z
	??$create@A6APEAUSDL_Surface@@PEBD@ZPEBD@sdl@ui@kmint@@YAPEAUSDL_Surface@@A6APEAU3@PEBD@Z$$QEAPEBD@Z
	??$create@A6APEAUSDL_Texture@@PEAUSDL_Renderer@@PEAUSDL_Surface@@@ZAEAPEAU2@AEBVsurface@sdl@ui@kmint@@@sdl@ui@kmint@@YAPEAUSDL_Texture@@A6APEAU3@PEAUSDL_Renderer@@PEAUSDL_Surface@@@ZAEAPEAU4@AEBVsurface@012@@Z
	??$create@A6APEAUSDL_Window@@PEBDHHHHI@ZAEAPEBDIIMMW4SDL_WindowFlags@@@sdl@ui@kmint@@YAPEAUSDL_Window@@A6APEAU3@PEBDHHHHI@ZAEAPEBD$$QEAI3$$QEAM4$$QEAW4SDL_WindowFlags@@@Z
	??$deref_unique_ptr@V?$basic_node@Umap_node_info@map@kmint@@@graph@kmint@@@util@kmint@@YAAEAV?$basic_node@Umap_node_info@map@kmint@@@graph@1@AEBV?$unique_ptr@V?$basic_node@Umap_node_info@map@kmint@@@graph@kmint@@U?$default_delete@V?$basic_node@Umap_node_info@map@kmint@@@graph@kmint@@@std@@@std@@@Z
	??$deref_unique_ptr@Vactor@play@kmint@@@util@kmint@@YAAEAVactor@play@1@AEBV?$unique_ptr@Vactor@play@kmint@@U?$default_delete@Vactor@play@kmint@@@std@@@std@@@Z
	??$deref_unique_ptr_const@Vactor@play@kmint@@@util@kmint@@YAAEBVactor@play@1@AEBV?$unique_ptr@Vactor@play@kmint@@U?$default_delete@Vactor@play@kmint@@@std@@@std@@@Z
	??$destroy@U?$pair@$$CBDUtile_info@map@kmint@@@std@@@?$_Default_allocator_traits@V?$allocator@U?$_Tree_node@U?$pair@$$CBDUtile_info@map@kmint@@@std@@PEAX@std@@@std@@@std@@SAXAEAV?$allocator@U?$_Tree_node@U?$pair@$$CBDUtile_info@map@kmint@@@std@@PEAX@std@@@1@QEAU?$pair@$$CBDUtile_info@map@kmint@@@1@@Z
	??$destroy@U?$pair@$$CBDV?$vector@PEAV?$basic_node@Umap_node_info@map@kmint@@@graph@kmint@@V?$allocator@PEAV?$basic_node@Umap_node_info@map@kmint@@@graph@kmint@@@std@@@std@@@std@@@?$_Default_allocator_traits@V?$allocator@U?$_List_node@U?$pair@$$CBDV?$vector@PEAV?$basic_node@Umap_node_info@map@kmint@@@graph@kmint@@V?$allocator@PEAV?$basic_node@Umap_node_info@map@kmint@@@graph@kmint@@@std@@@std@@@std@@PEAX@std@@@std@@@std@@SAXAEAV?$allocator@U?$_List_node@U?$pair@$$CBDV?$vector@PEAV?$basic_node@Umap_node_info@map@kmint@@@graph@kmint@@V?$allocator@PEAV?$basic_node@Umap_node_info@map@kmint@@@graph@kmint@@@std@@@std@@@std@@PEAX@std@@@1@QEAU?$pair@$$CBDV?$vector@PEAV?$basic_node@Umap_node_info@map@kmint@@@graph@kmint@@V?$allocator@PEAV?$basic_node@Umap_node_info@map@kmint@@@graph@kmint@@@std@@@std@@@1@@Z
	??$destroy@U?$pair@$$CBV?$basic_string@DU?$char_traits@D@std@@V?$allocator@D@2@@std@@Vtexture@sdl@ui@kmint@@@std@@@?$_Default_allocator_traits@V?$allocator@U?$_Tree_node@U?$pair@$$CBV?$basic_string@DU?$char_traits@D@std@@V?$allocator@D@2@@std@@Vtexture@sdl@ui@kmint@@@std@@PEAX@std@@@std@@@std@@SAXAEAV?$allocator@U?$_Tree_node@U?$pair@$$CBV?$basic_string@DU?$char_traits@D@std@@V?$allocator@D@2@@std@@Vtexture@sdl@ui@kmint@@@std@@PEAX@std@@@1@QEAU?$pair@$$CBV?$basic_string@DU?$char_traits@D@std@@V?$allocator@D@2@@std@@Vtexture@sdl@ui@kmint@@@1@@Z
	??$destroy@V?$unique_ptr@V?$basic_edge@Umap_node_info@map@kmint@@@graph@kmint@@U?$default_delete@V?$basic_edge@Umap_node_info@map@kmint@@@graph@kmint@@@std@@@std@@@?$_Default_allocator_traits@V?$allocator@V?$unique_ptr@V?$basic_edge@Umap_node_info@map@kmint@@@graph@kmint@@U?$default_delete@V?$basic_edge@Umap_node_info@map@kmint@@@graph@kmint@@@std@@@std@@@std@@@std@@SAXAEAV?$allocator@V?$unique_ptr@V?$basic_edge@Umap_node_info@map@kmint@@@graph@kmint@@U?$default_delete@V?$basic_edge@Umap_node_info@map@kmint@@@graph@kmint@@@std@@@std@@@1@QEAV?$unique_ptr@V?$basic_edge@Umap_node_info@map@kmint@@@graph@kmint@@U?$default_delete@V?$basic_edge@Umap_node_info@map@kmint@@@graph@kmint@@@std@@@1@@Z
	??$destroy@V?$unique_ptr@V?$basic_edge@Uno_node_info@graph@kmint@@@graph@kmint@@U?$default_delete@V?$basic_edge@Uno_node_info@graph@kmint@@@graph@kmint@@@std@@@std@@@?$_Default_allocator_traits@V?$allocator@V?$unique_ptr@V?$basic_edge@Uno_node_info@graph@kmint@@@graph@kmint@@U?$default_delete@V?$basic_edge@Uno_node_info@graph@kmint@@@graph@kmint@@@std@@@std@@@std@@@std@@SAXAEAV?$allocator@V?$unique_ptr@V?$basic_edge@Uno_node_info@graph@kmint@@@graph@kmint@@U?$default_delete@V?$basic_edge@Uno_node_info@graph@kmint@@@graph@kmint@@@std@@@std@@@1@QEAV?$unique_ptr@V?$basic_edge@Uno_node_info@graph@kmint@@@graph@kmint@@U?$default_delete@V?$basic_edge@Uno_node_info@graph@kmint@@@graph@kmint@@@std@@@1@@Z
	??$destroy@V?$unique_ptr@V?$basic_node@Umap_node_info@map@kmint@@@graph@kmint@@U?$default_delete@V?$basic_node@Umap_node_info@map@kmint@@@graph@kmint@@@std@@@std@@@?$_Default_allocator_traits@V?$allocator@V?$unique_ptr@V?$basic_node@Umap_node_info@map@kmint@@@graph@kmint@@U?$default_delete@V?$basic_node@Umap_node_info@map@kmint@@@graph@kmint@@@std@@@std@@@std@@@std@@SAXAEAV?$allocator@V?$unique_ptr@V?$basic_node@Umap_node_info@map@kmint@@@graph@kmint@@U?$default_delete@V?$basic_node@Umap_node_info@map@kmint@@@graph@kmint@@@std@@@std@@@1@QEAV?$unique_ptr@V?$basic_node@Umap_node_info@map@kmint@@@graph@kmint@@U?$default_delete@V?$basic_node@Umap_node_info@map@kmint@@@graph@kmint@@@std@@@1@@Z
	??$destroy@V?$unique_ptr@V?$basic_node@Uno_node_info@graph@kmint@@@graph@kmint@@U?$default_delete@V?$basic_node@Uno_node_info@graph@kmint@@@graph@kmint@@@std@@@std@@@?$_Default_allocator_traits@V?$allocator@V?$unique_ptr@V?$basic_node@Uno_node_info@graph@kmint@@@graph@kmint@@U?$default_delete@V?$basic_node@Uno_node_info@graph@kmint@@@graph@kmint@@@std@@@std@@@std@@@std@@SAXAEAV?$allocator@V?$unique_ptr@V?$basic_node@Uno_node_info@graph@kmint@@@graph@kmint@@U?$default_delete@V?$basic_node@Uno_node_info@graph@kmint@@@graph@kmint@@@std@@@std@@@1@QEAV?$unique_ptr@V?$basic_node@Uno_node_info@graph@kmint@@@graph@kmint@@U?$default_delete@V?$basic_node@Uno_node_info@graph@kmint@@@graph@kmint@@@std@@@1@@Z
	??$destroy@V?$unique_ptr@Vactor@play@kmint@@U?$default_delete@Vactor@play@kmint@@@std@@@std@@@?$_Default_allocator_traits@V?$allocator@V?$unique_ptr@Vactor@play@kmint@@U?$default_delete@Vactor@play@kmint@@@std@@@std@@@std@@@std@@SAXAEAV?$allocator@V?$unique_ptr@Vactor@play@kmint@@U?$default_delete@Vactor@play@kmint@@@std@@@std@@@1@QEAV?$unique_ptr@Vactor@play@kmint@@U?$default_delete@Vactor@play@kmint@@@std@@@1@@Z
	??$emplace@AEADAEAUtile_info@map@kmint@@@?$_Tree@V?$_Tmap_traits@DUtile_info@map@kmint@@U?$less@D@std@@V?$allocator@U?$pair@$$CBDUtile_info@map@kmint@@@std@@@5@$0A@@std@@@std@@QEAA?AU?$pair@V?$_Tree_iterator@V?$_Tree_val@U?$_Tree_simple_types@U?$pair@$$CBDUtile_info@map@kmint@@@std@@@std@@@std@@@std@@_N@1@AEADAEAUtile_info@map@kmint@@@Z
	??$emplace@U?$pair@V?$basic_string@DU?$char_traits@D@std@@V?$allocator@D@2@@std@@Vtexture@sdl@ui@kmint@@@std@@@?$_Tree@V?$_Tmap_traits@V?$basic_string@DU?$char_traits@D@std@@V?$allocator@D@2@@std@@Vtexture@sdl@ui@kmint@@U?$less@V?$basic_string@DU?$char_traits@D@std@@V?$allocator@D@2@@std@@@2@V?$allocator@U?$pair@$$CBV?$basic_string@DU?$char_traits@D@std@@V?$allocator@D@2@@std@@Vtexture@sdl@ui@kmint@@@std@@@2@$0A@@std@@@std@@QEAA?AU?$pair@V?$_Tree_iterator@V?$_Tree_val@U?$_Tree_simple_types@U?$pair@$$CBV?$basic_string@DU?$char_traits@D@std@@V?$allocator@D@2@@std@@Vtexture@sdl@ui@kmint@@@std@@@std@@@std@@@std@@_N@1@$$QEAU?$pair@V?$basic_string@DU?$char_traits@D@std@@V?$allocator@D@2@@std@@Vtexture@sdl@ui@kmint@@@1@@Z
	??$emplace_back@AEBD@?$vector@DV?$allocator@D@std@@@std@@QEAAAEADAEBD@Z
	??$emplace_back@AEBQEAVactor@play@kmint@@@?$vector@PEAVactor@play@kmint@@V?$allocator@PEAVactor@play@kmint@@@std@@@std@@QEAAAEAPEAVactor@play@kmint@@AEBQEAV234@@Z
	??$emplace_back@PEAV?$basic_node@Umap_node_info@map@kmint@@@graph@kmint@@@?$vector@PEAV?$basic_node@Umap_node_info@map@kmint@@@graph@kmint@@V?$allocator@PEAV?$basic_node@Umap_node_info@map@kmint@@@graph@kmint@@@std@@@std@@QEAAAEAPEAV?$basic_node@Umap_node_info@map@kmint@@@graph@kmint@@$$QEAPEAV234@@Z
	??$emplace_back@PEAV?$basic_node@Umap_node_info@map@kmint@@@graph@kmint@@@?$vector@V?$unique_ptr@V?$basic_node@Umap_node_info@map@kmint@@@graph@kmint@@U?$default_delete@V?$basic_node@Umap_node_info@map@kmint@@@graph@kmint@@@std@@@std@@V?$allocator@V?$unique_ptr@V?$basic_node@Umap_node_info@map@kmint@@@graph@kmint@@U?$default_delete@V?$basic_node@Umap_node_info@map@kmint@@@graph@kmint@@@std@@@std@@@2@@std@@QEAAAEAV?$unique_ptr@V?$basic_node@Umap_node_info@map@kmint@@@graph@kmint@@U?$default_delete@V?$basic_node@Umap_node_info@map@kmint@@@graph@kmint@@@std@@@1@$$QEAPEAV?$basic_node@Umap_node_info@map@kmint@@@graph@kmint@@@Z
	??$emplace_back@PEAV?$basic_node@Uno_node_info@graph@kmint@@@graph@kmint@@@?$vector@V?$unique_ptr@V?$basic_node@Uno_node_info@graph@kmint@@@graph@kmint@@U?$default_delete@V?$basic_node@Uno_node_info@graph@kmint@@@graph@kmint@@@std@@@std@@V?$allocator@V?$unique_ptr@V?$basic_node@Uno_node_info@graph@kmint@@@graph@kmint@@U?$default_delete@V?$basic_node@Uno_node_info@graph@kmint@@@graph@kmint@@@std@@@std@@@2@@std@@QEAAAEAV?$unique_ptr@V?$basic_node@Uno_node_info@graph@kmint@@@graph@kmint@@U?$default_delete@V?$basic_node@Uno_node_info@graph@kmint@@@graph@kmint@@@std@@@1@$$QEAPEAV?$basic_node@Uno_node_info@graph@kmint@@@graph@kmint@@@Z
	??$emplace_back@PEAVactor@play@kmint@@@?$vector@PEAVactor@play@kmint@@V?$allocator@PEAVactor@play@kmint@@@std@@@std@@QEAAAEAPEAVactor@play@kmint@@$$QEAPEAV234@@Z
	??$emplace_back@V?$unique_ptr@V?$basic_edge@Umap_node_info@map@kmint@@@graph@kmint@@U?$default_delete@V?$basic_edge@Umap_node_info@map@kmint@@@graph@kmint@@@std@@@std@@@?$vector@V?$unique_ptr@V?$basic_edge@Umap_node_info@map@kmint@@@graph@kmint@@U?$default_delete@V?$basic_edge@Umap_node_info@map@kmint@@@graph@kmint@@@std@@@std@@V?$allocator@V?$unique_ptr@V?$basic_edge@Umap_node_info@map@kmint@@@graph@kmint@@U?$default_delete@V?$basic_edge@Umap_node_info@map@kmint@@@graph@kmint@@@std@@@std@@@2@@std@@QEAAAEAV?$unique_ptr@V?$basic_edge@Umap_node_info@map@kmint@@@graph@kmint@@U?$default_delete@V?$basic_edge@Umap_node_info@map@kmint@@@graph@kmint@@@std@@@1@$$QEAV21@@Z
	??$emplace_back@V?$unique_ptr@V?$basic_edge@Uno_node_info@graph@kmint@@@graph@kmint@@U?$default_delete@V?$basic_edge@Uno_node_info@graph@kmint@@@graph@kmint@@@std@@@std@@@?$vector@V?$unique_ptr@V?$basic_edge@Uno_node_info@graph@kmint@@@graph@kmint@@U?$default_delete@V?$basic_edge@Uno_node_info@graph@kmint@@@graph@kmint@@@std@@@std@@V?$allocator@V?$unique_ptr@V?$basic_edge@Uno_node_info@graph@kmint@@@graph@kmint@@U?$default_delete@V?$basic_edge@Uno_node_info@graph@kmint@@@graph@kmint@@@std@@@std@@@2@@std@@QEAAAEAV?$unique_ptr@V?$basic_edge@Uno_node_info@graph@kmint@@@graph@kmint@@U?$default_delete@V?$basic_edge@Uno_node_info@graph@kmint@@@graph@kmint@@@std@@@1@$$QEAV21@@Z
	??$exchange@PEAU?$_List_node@U?$pair@$$CBDV?$vector@PEAV?$basic_node@Umap_node_info@map@kmint@@@graph@kmint@@V?$allocator@PEAV?$basic_node@Umap_node_info@map@kmint@@@graph@kmint@@@std@@@std@@@std@@PEAX@std@@$$T@std@@YAPEAU?$_List_node@U?$pair@$$CBDV?$vector@PEAV?$basic_node@Umap_node_info@map@kmint@@@graph@kmint@@V?$allocator@PEAV?$basic_node@Umap_node_info@map@kmint@@@graph@kmint@@@std@@@std@@@std@@PEAX@0@AEAPEAU10@$$QEA$$T@Z
	??$exchange@PEAU?$_Tree_node@U?$pair@$$CBDUtile_info@map@kmint@@@std@@PEAX@std@@$$T@std@@YAPEAU?$_Tree_node@U?$pair@$$CBDUtile_info@map@kmint@@@std@@PEAX@0@AEAPEAU10@$$QEA$$T@Z
	??$exchange@PEAU?$_Tree_node@U?$pair@$$CBDUtile_info@map@kmint@@@std@@PEAX@std@@AEAPEAU12@@std@@YAPEAU?$_Tree_node@U?$pair@$$CBDUtile_info@map@kmint@@@std@@PEAX@0@AEAPEAU10@0@Z
	??$exchange@PEAU?$_Tree_node@U?$pair@$$CBV?$basic_string@DU?$char_traits@D@std@@V?$allocator@D@2@@std@@Vtexture@sdl@ui@kmint@@@std@@PEAX@std@@$$T@std@@YAPEAU?$_Tree_node@U?$pair@$$CBV?$basic_string@DU?$char_traits@D@std@@V?$allocator@D@2@@std@@Vtexture@sdl@ui@kmint@@@std@@PEAX@0@AEAPEAU10@$$QEA$$T@Z
	??$exchange@PEAU?$_Tree_node@U?$pair@$$CBV?$basic_string@DU?$char_traits@D@std@@V?$allocator@D@2@@std@@Vtexture@sdl@ui@kmint@@@std@@PEAX@std@@AEAPEAU12@@std@@YAPEAU?$_Tree_node@U?$pair@$$CBV?$basic_string@DU?$char_traits@D@std@@V?$allocator@D@2@@std@@Vtexture@sdl@ui@kmint@@@std@@PEAX@0@AEAPEAU10@0@Z
	??$exchange@PEAUSDL_Texture@@PEAU1@@std@@YAPEAUSDL_Texture@@AEAPEAU1@$$QEAPEAU1@@Z
	??$exchange@PEAU_Container_proxy@std@@$$T@std@@YAPEAU_Container_proxy@0@AEAPEAU10@$$QEA$$T@Z
	??$exchange@PEAUimpl@frame@ui@kmint@@AEAPEAU1234@@std@@YAPEAUimpl@frame@ui@kmint@@AEAPEAU1234@0@Z
	??$exchange@PEAUimpl@frame@ui@kmint@@PEAU1234@@std@@YAPEAUimpl@frame@ui@kmint@@AEAPEAU1234@$$QEAPEAU1234@@Z
	??$exchange@PEAV?$basic_edge@Umap_node_info@map@kmint@@@graph@kmint@@PEAV123@@std@@YAPEAV?$basic_edge@Umap_node_info@map@kmint@@@graph@kmint@@AEAPEAV123@$$QEAPEAV123@@Z
	??$exchange@PEAV?$basic_edge@Uno_node_info@graph@kmint@@@graph@kmint@@PEAV123@@std@@YAPEAV?$basic_edge@Uno_node_info@graph@kmint@@@graph@kmint@@AEAPEAV123@$$QEAPEAV123@@Z
	??$exchange@PEAV?$basic_node@Umap_node_info@map@kmint@@@graph@kmint@@PEAV123@@std@@YAPEAV?$basic_node@Umap_node_info@map@kmint@@@graph@kmint@@AEAPEAV123@$$QEAPEAV123@@Z
	??$exchange@PEAV?$basic_node@Uno_node_info@graph@kmint@@@graph@kmint@@PEAV123@@std@@YAPEAV?$basic_node@Uno_node_info@graph@kmint@@@graph@kmint@@AEAPEAV123@$$QEAPEAV123@@Z
	??$exchange@PEAV?$quad_tree@$03@play@kmint@@AEAPEAV123@@std@@YAPEAV?$quad_tree@$03@play@kmint@@AEAPEAV123@0@Z
	??$exchange@PEAV?$quad_tree@$03@play@kmint@@PEAV123@@std@@YAPEAV?$quad_tree@$03@play@kmint@@AEAPEAV123@$$QEAPEAV123@@Z
	??$exchange@PEAV_Facet_base@std@@PEAV12@@std@@YAPEAV_Facet_base@0@AEAPEAV10@$$QEAPEAV10@@Z
	??$exchange@PEAVactor@play@kmint@@AEAPEAV123@@std@@YAPEAVactor@play@kmint@@AEAPEAV123@0@Z
	??$exchange@PEAVactor@play@kmint@@PEAV123@@std@@YAPEAVactor@play@kmint@@AEAPEAV123@$$QEAPEAV123@@Z
	??$exchange@PEAVimpl@app@ui@kmint@@AEAPEAV1234@@std@@YAPEAVimpl@app@ui@kmint@@AEAPEAV1234@0@Z
	??$exchange@PEAVimpl@app@ui@kmint@@PEAV1234@@std@@YAPEAVimpl@app@ui@kmint@@AEAPEAV1234@$$QEAPEAV1234@@Z
	??$exchange@PEAVimpl@window@ui@kmint@@AEAPEAV1234@@std@@YAPEAVimpl@window@ui@kmint@@AEAPEAV1234@0@Z
	??$exchange@PEAVimpl@window@ui@kmint@@PEAV1234@@std@@YAPEAVimpl@window@ui@kmint@@AEAPEAV1234@$$QEAPEAV1234@@Z
	??$fill@PEAV?$_List_unchecked_iterator@V?$_List_val@U?$_List_simple_types@U?$pair@$$CBDV?$vector@PEAV?$basic_node@Umap_node_info@map@kmint@@@graph@kmint@@V?$allocator@PEAV?$basic_node@Umap_node_info@map@kmint@@@graph@kmint@@@std@@@std@@@std@@@std@@@std@@@std@@V12@@std@@YAXQEAV?$_List_unchecked_iterator@V?$_List_val@U?$_List_simple_types@U?$pair@$$CBDV?$vector@PEAV?$basic_node@Umap_node_info@map@kmint@@@graph@kmint@@V?$allocator@PEAV?$basic_node@Umap_node_info@map@kmint@@@graph@kmint@@@std@@@std@@@std@@@std@@@std@@@0@0AEBV10@@Z
	??$find@Vadd_collision_iterator@play@kmint@@@?$quad_tree@$03@play@kmint@@QEBAXV?$basic_rectangle@M@math@2@Vadd_collision_iterator@12@@Z
	??$find@Vadd_perceived_iterator@play@kmint@@@?$quad_tree@$03@play@kmint@@QEBAXV?$basic_rectangle@M@math@2@Vadd_perceived_iterator@12@@Z
	??$forward@AEAD@std@@YAAEADAEAD@Z
	??$forward@AEAM@std@@YAAEAMAEAM@Z
	??$forward@AEAPEAU?$_List_node@U?$pair@$$CBDV?$vector@PEAV?$basic_node@Umap_node_info@map@kmint@@@graph@kmint@@V?$allocator@PEAV?$basic_node@Umap_node_info@map@kmint@@@graph@kmint@@@std@@@std@@@std@@PEAX@std@@@std@@YAAEAPEAU?$_List_node@U?$pair@$$CBDV?$vector@PEAV?$basic_node@Umap_node_info@map@kmint@@@graph@kmint@@V?$allocator@PEAV?$basic_node@Umap_node_info@map@kmint@@@graph@kmint@@@std@@@std@@@std@@PEAX@0@AEAPEAU10@@Z
	??$forward@AEAPEAU?$_Tree_node@U?$pair@$$CBDUtile_info@map@kmint@@@std@@PEAX@std@@@std@@YAAEAPEAU?$_Tree_node@U?$pair@$$CBDUtile_info@map@kmint@@@std@@PEAX@0@AEAPEAU10@@Z
	??$forward@AEAPEAU?$_Tree_node@U?$pair@$$CBV?$basic_string@DU?$char_traits@D@std@@V?$allocator@D@2@@std@@Vtexture@sdl@ui@kmint@@@std@@PEAX@std@@@std@@YAAEAPEAU?$_Tree_node@U?$pair@$$CBV?$basic_string@DU?$char_traits@D@std@@V?$allocator@D@2@@std@@Vtexture@sdl@ui@kmint@@@std@@PEAX@0@AEAPEAU10@@Z
	??$forward@AEAPEAUSDL_Renderer@@@std@@YAAEAPEAUSDL_Renderer@@AEAPEAU1@@Z
	??$forward@AEAPEAUSDL_Surface@@@std@@YAAEAPEAUSDL_Surface@@AEAPEAU1@@Z
	??$forward@AEAPEAUSDL_Texture@@@std@@YAAEAPEAUSDL_Texture@@AEAPEAU1@@Z
	??$forward@AEAPEAUSDL_Window@@@std@@YAAEAPEAUSDL_Window@@AEAPEAU1@@Z
	??$forward@AEAPEAUimpl@frame@ui@kmint@@@std@@YAAEAPEAUimpl@frame@ui@kmint@@AEAPEAU1234@@Z
	??$forward@AEAPEAV?$basic_edge@Umap_node_info@map@kmint@@@graph@kmint@@@std@@YAAEAPEAV?$basic_edge@Umap_node_info@map@kmint@@@graph@kmint@@AEAPEAV123@@Z
	??$forward@AEAPEAV?$basic_edge@Uno_node_info@graph@kmint@@@graph@kmint@@@std@@YAAEAPEAV?$basic_edge@Uno_node_info@graph@kmint@@@graph@kmint@@AEAPEAV123@@Z
	??$forward@AEAPEAV?$basic_node@Umap_node_info@map@kmint@@@graph@kmint@@@std@@YAAEAPEAV?$basic_node@Umap_node_info@map@kmint@@@graph@kmint@@AEAPEAV123@@Z
	??$forward@AEAPEAV?$basic_node@Uno_node_info@graph@kmint@@@graph@kmint@@@std@@YAAEAPEAV?$basic_node@Uno_node_info@graph@kmint@@@graph@kmint@@AEAPEAV123@@Z
	??$forward@AEAPEAV?$quad_tree@$03@play@kmint@@@std@@YAAEAPEAV?$quad_tree@$03@play@kmint@@AEAPEAV123@@Z
	??$forward@AEAPEAV_Facet_base@std@@@std@@YAAEAPEAV_Facet_base@0@AEAPEAV10@@Z
	??$forward@AEAPEAVimpl@app@ui@kmint@@@std@@YAAEAPEAVimpl@app@ui@kmint@@AEAPEAV1234@@Z
	??$forward@AEAPEAVimpl@window@ui@kmint@@@std@@YAAEAPEAVimpl@window@ui@kmint@@AEAPEAV1234@@Z
	??$forward@AEAPEBD@std@@YAAEAPEBDAEAPEBD@Z
	??$forward@AEAU?$pair@$$CBDUtile_info@map@kmint@@@std@@@std@@YAAEAU?$pair@$$CBDUtile_info@map@kmint@@@0@AEAU10@@Z
	??$forward@AEAUtile_info@map@kmint@@@std@@YAAEAUtile_info@map@kmint@@AEAU123@@Z
	??$forward@AEAV?$basic_node@Umap_node_info@map@kmint@@@graph@kmint@@@std@@YAAEAV?$basic_node@Umap_node_info@map@kmint@@@graph@kmint@@AEAV123@@Z
	??$forward@AEAV?$basic_node@Uno_node_info@graph@kmint@@@graph@kmint@@@std@@YAAEAV?$basic_node@Uno_node_info@graph@kmint@@@graph@kmint@@AEAV123@@Z
	??$forward@AEAV?$basic_rectangle@M@math@kmint@@@std@@YAAEAV?$basic_rectangle@M@math@kmint@@AEAV123@@Z
	??$forward@AEAV?$unique_ptr@V?$basic_node@Umap_node_info@map@kmint@@@graph@kmint@@U?$default_delete@V?$basic_node@Umap_node_info@map@kmint@@@graph@kmint@@@std@@@std@@@std@@YAAEAV?$unique_ptr@V?$basic_node@Umap_node_info@map@kmint@@@graph@kmint@@U?$default_delete@V?$basic_node@Umap_node_info@map@kmint@@@graph@kmint@@@std@@@0@AEAV10@@Z
	??$forward@AEAV?$unique_ptr@Vactor@play@kmint@@U?$default_delete@Vactor@play@kmint@@@std@@@std@@@std@@YAAEAV?$unique_ptr@Vactor@play@kmint@@U?$default_delete@Vactor@play@kmint@@@std@@@0@AEAV10@@Z
	??$forward@AEBD@std@@YAAEBDAEBD@Z
	??$forward@AEBH@std@@YAAEBHAEBH@Z
	??$forward@AEBQ6AAEAV?$basic_node@Umap_node_info@map@kmint@@@graph@kmint@@AEBV?$unique_ptr@V?$basic_node@Umap_node_info@map@kmint@@@graph@kmint@@U?$default_delete@V?$basic_node@Umap_node_info@map@kmint@@@graph@kmint@@@std@@@std@@@Z@std@@YAAEBQ6AAEAV?$basic_node@Umap_node_info@map@kmint@@@graph@kmint@@AEBV?$unique_ptr@V?$basic_node@Umap_node_info@map@kmint@@@graph@kmint@@U?$default_delete@V?$basic_node@Umap_node_info@map@kmint@@@graph@kmint@@@std@@@0@@ZAEBQ6AAEAV123@0@Z@Z
	??$forward@AEBQ6AAEAVactor@play@kmint@@AEBV?$unique_ptr@Vactor@play@kmint@@U?$default_delete@Vactor@play@kmint@@@std@@@std@@@Z@std@@YAAEBQ6AAEAVactor@play@kmint@@AEBV?$unique_ptr@Vactor@play@kmint@@U?$default_delete@Vactor@play@kmint@@@std@@@0@@ZAEBQ6AAEAV123@0@Z@Z
	??$forward@AEBQ6AAEBVactor@play@kmint@@AEBV?$unique_ptr@Vactor@play@kmint@@U?$default_delete@Vactor@play@kmint@@@std@@@std@@@Z@std@@YAAEBQ6AAEBVactor@play@kmint@@AEBV?$unique_ptr@Vactor@play@kmint@@U?$default_delete@Vactor@play@kmint@@@std@@@0@@ZAEBQ6AAEBV123@0@Z@Z
	??$forward@AEBQEAD@std@@YAAEBQEADAEBQEAD@Z
	??$forward@AEBQEAU?$_List_node@U?$pair@$$CBDV?$vector@PEAV?$basic_node@Umap_node_info@map@kmint@@@graph@kmint@@V?$allocator@PEAV?$basic_node@Umap_node_info@map@kmint@@@graph@kmint@@@std@@@std@@@std@@PEAX@std@@@std@@YAAEBQEAU?$_List_node@U?$pair@$$CBDV?$vector@PEAV?$basic_node@Umap_node_info@map@kmint@@@graph@kmint@@V?$allocator@PEAV?$basic_node@Umap_node_info@map@kmint@@@graph@kmint@@@std@@@std@@@std@@PEAX@0@AEBQEAU10@@Z
	??$forward@AEBQEAU?$_Tree_node@U?$pair@$$CBDUtile_info@map@kmint@@@std@@PEAX@std@@@std@@YAAEBQEAU?$_Tree_node@U?$pair@$$CBDUtile_info@map@kmint@@@std@@PEAX@0@AEBQEAU10@@Z
	??$forward@AEBQEAU?$_Tree_node@U?$pair@$$CBV?$basic_string@DU?$char_traits@D@std@@V?$allocator@D@2@@std@@Vtexture@sdl@ui@kmint@@@std@@PEAX@std@@@std@@YAAEBQEAU?$_Tree_node@U?$pair@$$CBV?$basic_string@DU?$char_traits@D@std@@V?$allocator@D@2@@std@@Vtexture@sdl@ui@kmint@@@std@@PEAX@0@AEBQEAU10@@Z
	??$forward@AEBQEAVactor@play@kmint@@@std@@YAAEBQEAVactor@play@kmint@@AEBQEAV123@@Z
	??$forward@AEBU?$less@D@std@@@std@@YAAEBU?$less@D@0@AEBU10@@Z
	??$forward@AEBU?$less@V?$basic_string@DU?$char_traits@D@std@@V?$allocator@D@2@@std@@@std@@@std@@YAAEBU?$less@V?$basic_string@DU?$char_traits@D@std@@V?$allocator@D@2@@std@@@0@AEBU10@@Z
	??$forward@AEBUpiecewise_construct_t@std@@@std@@YAAEBUpiecewise_construct_t@0@AEBU10@@Z
	??$forward@AEBV?$_List_unchecked_iterator@V?$_List_val@U?$_List_simple_types@U?$pair@$$CBDV?$vector@PEAV?$basic_node@Umap_node_info@map@kmint@@@graph@kmint@@V?$allocator@PEAV?$basic_node@Umap_node_info@map@kmint@@@graph@kmint@@@std@@@std@@@std@@@std@@@std@@@std@@@std@@YAAEBV?$_List_unchecked_iterator@V?$_List_val@U?$_List_simple_types@U?$pair@$$CBDV?$vector@PEAV?$basic_node@Umap_node_info@map@kmint@@@graph@kmint@@V?$allocator@PEAV?$basic_node@Umap_node_info@map@kmint@@@graph@kmint@@@std@@@std@@@std@@@std@@@std@@@0@AEBV10@@Z
	??$forward@AEBV?$allocator@H@std@@@std@@YAAEBV?$allocator@H@0@AEBV10@@Z
	??$forward@AEBV?$allocator@U?$pair@$$CBDV?$vector@PEAV?$basic_node@Umap_node_info@map@kmint@@@graph@kmint@@V?$allocator@PEAV?$basic_node@Umap_node_info@map@kmint@@@graph@kmint@@@std@@@std@@@std@@@std@@@std@@YAAEBV?$allocator@U?$pair@$$CBDV?$vector@PEAV?$basic_node@Umap_node_info@map@kmint@@@graph@kmint@@V?$allocator@PEAV?$basic_node@Umap_node_info@map@kmint@@@graph@kmint@@@std@@@std@@@std@@@0@AEBV10@@Z
	??$forward@AEBV?$basic_string@DU?$char_traits@D@std@@V?$allocator@D@2@@std@@@std@@YAAEBV?$basic_string@DU?$char_traits@D@std@@V?$allocator@D@2@@0@AEBV10@@Z
	??$forward@AEBV?$unique_ptr@Vactor@play@kmint@@U?$default_delete@Vactor@play@kmint@@@std@@@std@@@std@@YAAEBV?$unique_ptr@Vactor@play@kmint@@U?$default_delete@Vactor@play@kmint@@@std@@@0@AEBV10@@Z
	??$forward@AEBVsurface@sdl@ui@kmint@@@std@@YAAEBVsurface@sdl@ui@kmint@@AEBV1234@@Z
	??$forward@AEB_N@std@@YAAEB_NAEB_N@Z
	??$forward@H@std@@YA$$QEAHAEAH@Z
	??$forward@I@std@@YA$$QEAIAEAI@Z
	??$forward@M@std@@YA$$QEAMAEAM@Z
	??$forward@P6AAEAV?$basic_node@Umap_node_info@map@kmint@@@graph@kmint@@AEBV?$unique_ptr@V?$basic_node@Umap_node_info@map@kmint@@@graph@kmint@@U?$default_delete@V?$basic_node@Umap_node_info@map@kmint@@@graph@kmint@@@std@@@std@@@Z@std@@YA$$QEAP6AAEAV?$basic_node@Umap_node_info@map@kmint@@@graph@kmint@@AEBV?$unique_ptr@V?$basic_node@Umap_node_info@map@kmint@@@graph@kmint@@U?$default_delete@V?$basic_node@Umap_node_info@map@kmint@@@graph@kmint@@@std@@@0@@ZAEAP6AAEAV123@0@Z@Z
	??$forward@P6AAEAVactor@play@kmint@@AEBV?$unique_ptr@Vactor@play@kmint@@U?$default_delete@Vactor@play@kmint@@@std@@@std@@@Z@std@@YA$$QEAP6AAEAVactor@play@kmint@@AEBV?$unique_ptr@Vactor@play@kmint@@U?$default_delete@Vactor@play@kmint@@@std@@@0@@ZAEAP6AAEAV123@0@Z@Z
	??$forward@P6AAEBVactor@play@kmint@@AEBV?$unique_ptr@Vactor@play@kmint@@U?$default_delete@Vactor@play@kmint@@@std@@@std@@@Z@std@@YA$$QEAP6AAEBVactor@play@kmint@@AEBV?$unique_ptr@Vactor@play@kmint@@U?$default_delete@Vactor@play@kmint@@@std@@@0@@ZAEAP6AAEBV123@0@Z@Z
	??$forward@PEAU?$_List_node@U?$pair@$$CBDV?$vector@PEAV?$basic_node@Umap_node_info@map@kmint@@@graph@kmint@@V?$allocator@PEAV?$basic_node@Umap_node_info@map@kmint@@@graph@kmint@@@std@@@std@@@std@@PEAX@std@@@std@@YA$$QEAPEAU?$_List_node@U?$pair@$$CBDV?$vector@PEAV?$basic_node@Umap_node_info@map@kmint@@@graph@kmint@@V?$allocator@PEAV?$basic_node@Umap_node_info@map@kmint@@@graph@kmint@@@std@@@std@@@std@@PEAX@0@AEAPEAU10@@Z
	??$forward@PEAU?$_Tree_node@U?$pair@$$CBDUtile_info@map@kmint@@@std@@PEAX@std@@@std@@YA$$QEAPEAU?$_Tree_node@U?$pair@$$CBDUtile_info@map@kmint@@@std@@PEAX@0@AEAPEAU10@@Z
	??$forward@PEAU?$_Tree_node@U?$pair@$$CBV?$basic_string@DU?$char_traits@D@std@@V?$allocator@D@2@@std@@Vtexture@sdl@ui@kmint@@@std@@PEAX@std@@@std@@YA$$QEAPEAU?$_Tree_node@U?$pair@$$CBV?$basic_string@DU?$char_traits@D@std@@V?$allocator@D@2@@std@@Vtexture@sdl@ui@kmint@@@std@@PEAX@0@AEAPEAU10@@Z
	??$forward@PEAUSDL_Renderer@@@std@@YA$$QEAPEAUSDL_Renderer@@AEAPEAU1@@Z
	??$forward@PEAUSDL_Texture@@@std@@YA$$QEAPEAUSDL_Texture@@AEAPEAU1@@Z
	??$forward@PEAU_Container_base12@std@@@std@@YA$$QEAPEAU_Container_base12@0@AEAPEAU10@@Z
	??$forward@PEAUimpl@frame@ui@kmint@@@std@@YA$$QEAPEAUimpl@frame@ui@kmint@@AEAPEAU1234@@Z
	??$forward@PEAV?$basic_edge@Umap_node_info@map@kmint@@@graph@kmint@@@std@@YA$$QEAPEAV?$basic_edge@Umap_node_info@map@kmint@@@graph@kmint@@AEAPEAV123@@Z
	??$forward@PEAV?$basic_edge@Uno_node_info@graph@kmint@@@graph@kmint@@@std@@YA$$QEAPEAV?$basic_edge@Uno_node_info@graph@kmint@@@graph@kmint@@AEAPEAV123@@Z
	??$forward@PEAV?$basic_node@Umap_node_info@map@kmint@@@graph@kmint@@@std@@YA$$QEAPEAV?$basic_node@Umap_node_info@map@kmint@@@graph@kmint@@AEAPEAV123@@Z
	??$forward@PEAV?$basic_node@Uno_node_info@graph@kmint@@@graph@kmint@@@std@@YA$$QEAPEAV?$basic_node@Uno_node_info@graph@kmint@@@graph@kmint@@AEAPEAV123@@Z
	??$forward@PEAV?$quad_tree@$03@play@kmint@@@std@@YA$$QEAPEAV?$quad_tree@$03@play@kmint@@AEAPEAV123@@Z
	??$forward@PEAVactor@play@kmint@@@std@@YA$$QEAPEAVactor@play@kmint@@AEAPEAV123@@Z
	??$forward@PEAVimpl@app@ui@kmint@@@std@@YA$$QEAPEAVimpl@app@ui@kmint@@AEAPEAV1234@@Z
	??$forward@PEAVimpl@window@ui@kmint@@@std@@YA$$QEAPEAVimpl@window@ui@kmint@@AEAPEAV1234@@Z
	??$forward@PEBD@std@@YA$$QEAPEBDAEAPEBD@Z
	??$forward@U?$default_delete@Uimpl@frame@ui@kmint@@@std@@@std@@YA$$QEAU?$default_delete@Uimpl@frame@ui@kmint@@@0@AEAU10@@Z
	??$forward@U?$default_delete@V?$basic_edge@Umap_node_info@map@kmint@@@graph@kmint@@@std@@@std@@YA$$QEAU?$default_delete@V?$basic_edge@Umap_node_info@map@kmint@@@graph@kmint@@@0@AEAU10@@Z
	??$forward@U?$default_delete@V?$basic_edge@Uno_node_info@graph@kmint@@@graph@kmint@@@std@@@std@@YA$$QEAU?$default_delete@V?$basic_edge@Uno_node_info@graph@kmint@@@graph@kmint@@@0@AEAU10@@Z
	??$forward@U?$default_delete@V?$basic_node@Umap_node_info@map@kmint@@@graph@kmint@@@std@@@std@@YA$$QEAU?$default_delete@V?$basic_node@Umap_node_info@map@kmint@@@graph@kmint@@@0@AEAU10@@Z
	??$forward@U?$default_delete@V?$basic_node@Uno_node_info@graph@kmint@@@graph@kmint@@@std@@@std@@YA$$QEAU?$default_delete@V?$basic_node@Uno_node_info@graph@kmint@@@graph@kmint@@@0@AEAU10@@Z
	??$forward@U?$default_delete@V?$quad_tree@$03@play@kmint@@@std@@@std@@YA$$QEAU?$default_delete@V?$quad_tree@$03@play@kmint@@@0@AEAU10@@Z
	??$forward@U?$default_delete@Vactor@play@kmint@@@std@@@std@@YA$$QEAU?$default_delete@Vactor@play@kmint@@@0@AEAU10@@Z
	??$forward@U?$default_delete@Vimpl@app@ui@kmint@@@std@@@std@@YA$$QEAU?$default_delete@Vimpl@app@ui@kmint@@@0@AEAU10@@Z
	??$forward@U?$default_delete@Vimpl@window@ui@kmint@@@std@@@std@@YA$$QEAU?$default_delete@Vimpl@window@ui@kmint@@@0@AEAU10@@Z
	??$forward@U?$less@D@std@@@std@@YA$$QEAU?$less@D@0@AEAU10@@Z
	??$forward@U?$pair@V?$basic_string@DU?$char_traits@D@std@@V?$allocator@D@2@@std@@Vtexture@sdl@ui@kmint@@@std@@@std@@YA$$QEAU?$pair@V?$basic_string@DU?$char_traits@D@std@@V?$allocator@D@2@@std@@Vtexture@sdl@ui@kmint@@@0@AEAU10@@Z
	??$forward@U_One_then_variadic_args_t@std@@@std@@YA$$QEAU_One_then_variadic_args_t@0@AEAU10@@Z
	??$forward@U_Zero_then_variadic_args_t@std@@@std@@YA$$QEAU_Zero_then_variadic_args_t@0@AEAU10@@Z
	??$forward@Usaturated@?$quad_tree@$03@play@kmint@@@std@@YA$$QEAUsaturated@?$quad_tree@$03@play@kmint@@AEAU1234@@Z
	??$forward@V?$_Tree_iterator@V?$_Tree_val@U?$_Tree_simple_types@U?$pair@$$CBDUtile_info@map@kmint@@@std@@@std@@@std@@@std@@@std@@YA$$QEAV?$_Tree_iterator@V?$_Tree_val@U?$_Tree_simple_types@U?$pair@$$CBDUtile_info@map@kmint@@@std@@@std@@@std@@@0@AEAV10@@Z
	??$forward@V?$_Tree_iterator@V?$_Tree_val@U?$_Tree_simple_types@U?$pair@$$CBV?$basic_string@DU?$char_traits@D@std@@V?$allocator@D@2@@std@@Vtexture@sdl@ui@kmint@@@std@@@std@@@std@@@std@@@std@@YA$$QEAV?$_Tree_iterator@V?$_Tree_val@U?$_Tree_simple_types@U?$pair@$$CBV?$basic_string@DU?$char_traits@D@std@@V?$allocator@D@2@@std@@Vtexture@sdl@ui@kmint@@@std@@@std@@@std@@@0@AEAV10@@Z
	??$forward@V?$allocator@D@std@@@std@@YA$$QEAV?$allocator@D@0@AEAV10@@Z
	??$forward@V?$allocator@U?$_Tree_node@U?$pair@$$CBDUtile_info@map@kmint@@@std@@PEAX@std@@@std@@@std@@YA$$QEAV?$allocator@U?$_Tree_node@U?$pair@$$CBDUtile_info@map@kmint@@@std@@PEAX@std@@@0@AEAV10@@Z
	??$forward@V?$allocator@V?$unique_ptr@V?$basic_node@Umap_node_info@map@kmint@@@graph@kmint@@U?$default_delete@V?$basic_node@Umap_node_info@map@kmint@@@graph@kmint@@@std@@@std@@@std@@@std@@YA$$QEAV?$allocator@V?$unique_ptr@V?$basic_node@Umap_node_info@map@kmint@@@graph@kmint@@U?$default_delete@V?$basic_node@Umap_node_info@map@kmint@@@graph@kmint@@@std@@@std@@@0@AEAV10@@Z
	??$forward@V?$allocator@V?$unique_ptr@V?$basic_node@Uno_node_info@graph@kmint@@@graph@kmint@@U?$default_delete@V?$basic_node@Uno_node_info@graph@kmint@@@graph@kmint@@@std@@@std@@@std@@@std@@YA$$QEAV?$allocator@V?$unique_ptr@V?$basic_node@Uno_node_info@graph@kmint@@@graph@kmint@@U?$default_delete@V?$basic_node@Uno_node_info@graph@kmint@@@graph@kmint@@@std@@@std@@@0@AEAV10@@Z
	??$forward@V?$basic_string@DU?$char_traits@D@std@@V?$allocator@D@2@@std@@@std@@YA$$QEAV?$basic_string@DU?$char_traits@D@std@@V?$allocator@D@2@@0@AEAV10@@Z
	??$forward@V?$destroyer@USDL_Texture@@@sdl@ui@kmint@@@std@@YA$$QEAV?$destroyer@USDL_Texture@@@sdl@ui@kmint@@AEAV1234@@Z
	??$forward@V?$tuple@$$V@std@@@std@@YA$$QEAV?$tuple@$$V@0@AEAV10@@Z
	??$forward@V?$tuple@AEBD@std@@@std@@YA$$QEAV?$tuple@AEBD@0@AEAV10@@Z
	??$forward@V?$unique_ptr@V?$basic_edge@Umap_node_info@map@kmint@@@graph@kmint@@U?$default_delete@V?$basic_edge@Umap_node_info@map@kmint@@@graph@kmint@@@std@@@std@@@std@@YA$$QEAV?$unique_ptr@V?$basic_edge@Umap_node_info@map@kmint@@@graph@kmint@@U?$default_delete@V?$basic_edge@Umap_node_info@map@kmint@@@graph@kmint@@@std@@@0@AEAV10@@Z
	??$forward@V?$unique_ptr@V?$basic_edge@Uno_node_info@graph@kmint@@@graph@kmint@@U?$default_delete@V?$basic_edge@Uno_node_info@graph@kmint@@@graph@kmint@@@std@@@std@@@std@@YA$$QEAV?$unique_ptr@V?$basic_edge@Uno_node_info@graph@kmint@@@graph@kmint@@U?$default_delete@V?$basic_edge@Uno_node_info@graph@kmint@@@graph@kmint@@@std@@@0@AEAV10@@Z
	??$forward@V?$unique_ptr@V?$basic_node@Umap_node_info@map@kmint@@@graph@kmint@@U?$default_delete@V?$basic_node@Umap_node_info@map@kmint@@@graph@kmint@@@std@@@std@@@std@@YA$$QEAV?$unique_ptr@V?$basic_node@Umap_node_info@map@kmint@@@graph@kmint@@U?$default_delete@V?$basic_node@Umap_node_info@map@kmint@@@graph@kmint@@@std@@@0@AEAV10@@Z
	??$forward@V?$unique_ptr@V?$basic_node@Uno_node_info@graph@kmint@@@graph@kmint@@U?$default_delete@V?$basic_node@Uno_node_info@graph@kmint@@@graph@kmint@@@std@@@std@@@std@@YA$$QEAV?$unique_ptr@V?$basic_node@Uno_node_info@graph@kmint@@@graph@kmint@@U?$default_delete@V?$basic_node@Uno_node_info@graph@kmint@@@graph@kmint@@@std@@@0@AEAV10@@Z
	??$forward@Vtexture@sdl@ui@kmint@@@std@@YA$$QEAVtexture@sdl@ui@kmint@@AEAV1234@@Z
	??$forward@W4SDL_RendererFlags@@@std@@YA$$QEAW4SDL_RendererFlags@@AEAW41@@Z
	??$forward@W4SDL_WindowFlags@@@std@@YA$$QEAW4SDL_WindowFlags@@AEAW41@@Z
	??$forward@_N@std@@YA$$QEA_NAEA_N@Z
	??$forward_as_tuple@$$V@std@@YA?AV?$tuple@$$V@0@XZ
	??$forward_as_tuple@AEBD@std@@YA?AV?$tuple@AEBD@0@AEBD@Z
	??$generate_canonical@M$0?0V?$mersenne_twister_engine@I$0CA@$0CHA@$0BIN@$0BP@$0JJAILANP@$0L@$0PPPPPPPP@$06$0JNCMFGIA@$0P@$0OPMGAAAA@$0BC@$0GMAHIJGF@@std@@@std@@YAMAEAV?$mersenne_twister_engine@I$0CA@$0CHA@$0BIN@$0BP@$0JJAILANP@$0L@$0PPPPPPPP@$06$0JNCMFGIA@$0P@$0OPMGAAAA@$0BC@$0GMAHIJGF@@0@@Z
	??$get@$0A@AEBD@std@@YAAEBD$$QEAV?$tuple@AEBD@0@@Z
	??$getline@DU?$char_traits@D@std@@V?$allocator@D@2@@std@@YAAEAV?$basic_istream@DU?$char_traits@D@std@@@0@$$QEAV10@AEAV?$basic_string@DU?$char_traits@D@std@@V?$allocator@D@2@@0@D@Z
	??$getline@DU?$char_traits@D@std@@V?$allocator@D@2@@std@@YAAEAV?$basic_istream@DU?$char_traits@D@std@@@0@AEAV10@AEAV?$basic_string@DU?$char_traits@D@std@@V?$allocator@D@2@@0@@Z
	??$intersect@M@math@kmint@@YA_NAEBV?$basic_rectangle@M@01@0@Z
	??$invoke@AEAP6AAEAV?$basic_node@Umap_node_info@map@kmint@@@graph@kmint@@AEBV?$unique_ptr@V?$basic_node@Umap_node_info@map@kmint@@@graph@kmint@@U?$default_delete@V?$basic_node@Umap_node_info@map@kmint@@@graph@kmint@@@std@@@std@@@ZAEAV45@$$V@std@@YAAEAV?$basic_node@Umap_node_info@map@kmint@@@graph@kmint@@AEAP6AAEAV123@AEBV?$unique_ptr@V?$basic_node@Umap_node_info@map@kmint@@@graph@kmint@@U?$default_delete@V?$basic_node@Umap_node_info@map@kmint@@@graph@kmint@@@std@@@0@@ZAEAV40@@Z
	??$invoke@AEAP6AAEAVactor@play@kmint@@AEBV?$unique_ptr@Vactor@play@kmint@@U?$default_delete@Vactor@play@kmint@@@std@@@std@@@ZAEAV45@$$V@std@@YAAEAVactor@play@kmint@@AEAP6AAEAV123@AEBV?$unique_ptr@Vactor@play@kmint@@U?$default_delete@Vactor@play@kmint@@@std@@@0@@ZAEAV40@@Z
	??$invoke@AEAP6AAEBVactor@play@kmint@@AEBV?$unique_ptr@Vactor@play@kmint@@U?$default_delete@Vactor@play@kmint@@@std@@@std@@@ZAEBV45@$$V@std@@YAAEBVactor@play@kmint@@AEAP6AAEBV123@AEBV?$unique_ptr@Vactor@play@kmint@@U?$default_delete@Vactor@play@kmint@@@std@@@0@@Z0@Z
	??$invoke@U?$overload@V<lambda_1523b8ddba63e718f43ea97c9e0b26ab>@@V<lambda_29327d9d9fb0be4adcefd7095d0faa01>@@@kmint@@AEBUfree@?$quad_tree@$03@play@2@$$V@std@@YAX$$QEAU?$overload@V<lambda_1523b8ddba63e718f43ea97c9e0b26ab>@@V<lambda_29327d9d9fb0be4adcefd7095d0faa01>@@@kmint@@AEBUfree@?$quad_tree@$03@play@2@@Z
	??$invoke@U?$overload@V<lambda_1523b8ddba63e718f43ea97c9e0b26ab>@@V<lambda_29327d9d9fb0be4adcefd7095d0faa01>@@@kmint@@AEBUsaturated@?$quad_tree@$03@play@2@$$V@std@@YAX$$QEAU?$overload@V<lambda_1523b8ddba63e718f43ea97c9e0b26ab>@@V<lambda_29327d9d9fb0be4adcefd7095d0faa01>@@@kmint@@AEBUsaturated@?$quad_tree@$03@play@2@@Z
	??$invoke@U?$overload@V<lambda_5e603f1a4bce7b3b42fb0d0c3f008067>@@V<lambda_5b573ddf20ab6b8c519541572a849e86>@@@kmint@@AEBUfree@?$quad_tree@$03@play@2@$$V@std@@YAX$$QEAU?$overload@V<lambda_5e603f1a4bce7b3b42fb0d0c3f008067>@@V<lambda_5b573ddf20ab6b8c519541572a849e86>@@@kmint@@AEBUfree@?$quad_tree@$03@play@2@@Z
	??$invoke@U?$overload@V<lambda_5e603f1a4bce7b3b42fb0d0c3f008067>@@V<lambda_5b573ddf20ab6b8c519541572a849e86>@@@kmint@@AEBUsaturated@?$quad_tree@$03@play@2@$$V@std@@YAX$$QEAU?$overload@V<lambda_5e603f1a4bce7b3b42fb0d0c3f008067>@@V<lambda_5b573ddf20ab6b8c519541572a849e86>@@@kmint@@AEBUsaturated@?$quad_tree@$03@play@2@@Z
	??$invoke@U?$overload@V<lambda_ad2beb13dbb0cf610997dab0ec383f8b>@@V<lambda_c23fc6e423333c95ae20a61e475ddf2a>@@@kmint@@AEAUfree@?$quad_tree@$03@play@2@$$V@std@@YA?AV?$optional@Usaturated@?$quad_tree@$03@play@kmint@@@0@$$QEAU?$overload@V<lambda_ad2beb13dbb0cf610997dab0ec383f8b>@@V<lambda_c23fc6e423333c95ae20a61e475ddf2a>@@@kmint@@AEAUfree@?$quad_tree@$03@play@3@@Z
	??$invoke@U?$overload@V<lambda_ad2beb13dbb0cf610997dab0ec383f8b>@@V<lambda_c23fc6e423333c95ae20a61e475ddf2a>@@@kmint@@AEAUsaturated@?$quad_tree@$03@play@2@$$V@std@@YA?AV?$optional@Usaturated@?$quad_tree@$03@play@kmint@@@0@$$QEAU?$overload@V<lambda_ad2beb13dbb0cf610997dab0ec383f8b>@@V<lambda_c23fc6e423333c95ae20a61e475ddf2a>@@@kmint@@AEAUsaturated@?$quad_tree@$03@play@3@@Z
	??$make_pair@AEBV?$basic_string@DU?$char_traits@D@std@@V?$allocator@D@2@@std@@Vtexture@sdl@ui@kmint@@@std@@YA?AU?$pair@V?$basic_string@DU?$char_traits@D@std@@V?$allocator@D@2@@std@@Vtexture@sdl@ui@kmint@@@0@AEBV?$basic_string@DU?$char_traits@D@std@@V?$allocator@D@2@@0@$$QEAVtexture@sdl@ui@kmint@@@Z
	??$make_unique@V?$basic_edge@Umap_node_info@map@kmint@@@graph@kmint@@AEAV?$basic_node@Umap_node_info@map@kmint@@@23@AEAV423@AEAM$0A@@std@@YA?AV?$unique_ptr@V?$basic_edge@Umap_node_info@map@kmint@@@graph@kmint@@U?$default_delete@V?$basic_edge@Umap_node_info@map@kmint@@@graph@kmint@@@std@@@0@AEAV?$basic_node@Umap_node_info@map@kmint@@@graph@kmint@@0AEAM@Z
	??$make_unique@V?$basic_edge@Uno_node_info@graph@kmint@@@graph@kmint@@AEAV?$basic_node@Uno_node_info@graph@kmint@@@23@AEAV423@AEAM$0A@@std@@YA?AV?$unique_ptr@V?$basic_edge@Uno_node_info@graph@kmint@@@graph@kmint@@U?$default_delete@V?$basic_edge@Uno_node_info@graph@kmint@@@graph@kmint@@@std@@@0@AEAV?$basic_node@Uno_node_info@graph@kmint@@@graph@kmint@@0AEAM@Z
	??$make_unique@V?$quad_tree@$03@play@kmint@@AEAV?$basic_rectangle@M@math@3@$0A@@std@@YA?AV?$unique_ptr@V?$quad_tree@$03@play@kmint@@U?$default_delete@V?$quad_tree@$03@play@kmint@@@std@@@0@AEAV?$basic_rectangle@M@math@kmint@@@Z
	??$max@PEAD@std@@YAAEBQEADAEBQEAD0@Z
	??$max@_K@std@@YAAEB_KAEB_K0@Z
	??$min@_K@std@@YAAEB_KAEB_K0@Z
	??$move@AEAP6AAEAV?$basic_node@Umap_node_info@map@kmint@@@graph@kmint@@AEBV?$unique_ptr@V?$basic_node@Umap_node_info@map@kmint@@@graph@kmint@@U?$default_delete@V?$basic_node@Umap_node_info@map@kmint@@@graph@kmint@@@std@@@std@@@Z@std@@YA$$QEAP6AAEAV?$basic_node@Umap_node_info@map@kmint@@@graph@kmint@@AEBV?$unique_ptr@V?$basic_node@Umap_node_info@map@kmint@@@graph@kmint@@U?$default_delete@V?$basic_node@Umap_node_info@map@kmint@@@graph@kmint@@@std@@@0@@ZAEAP6AAEAV123@0@Z@Z
	??$move@AEAP6AAEAVactor@play@kmint@@AEBV?$unique_ptr@Vactor@play@kmint@@U?$default_delete@Vactor@play@kmint@@@std@@@std@@@Z@std@@YA$$QEAP6AAEAVactor@play@kmint@@AEBV?$unique_ptr@Vactor@play@kmint@@U?$default_delete@Vactor@play@kmint@@@std@@@0@@ZAEAP6AAEAV123@0@Z@Z
	??$move@AEAP6AAEBVactor@play@kmint@@AEBV?$unique_ptr@Vactor@play@kmint@@U?$default_delete@Vactor@play@kmint@@@std@@@std@@@Z@std@@YA$$QEAP6AAEBVactor@play@kmint@@AEBV?$unique_ptr@Vactor@play@kmint@@U?$default_delete@Vactor@play@kmint@@@std@@@0@@ZAEAP6AAEBV123@0@Z@Z
	??$move@AEAPEAV?$basic_node@Umap_node_info@map@kmint@@@graph@kmint@@@std@@YA$$QEAPEAV?$basic_node@Umap_node_info@map@kmint@@@graph@kmint@@AEAPEAV123@@Z
	??$move@AEAPEAVactor@play@kmint@@@std@@YA$$QEAPEAVactor@play@kmint@@AEAPEAV123@@Z
	??$move@AEAUmap_node_info@map@kmint@@@std@@YA$$QEAUmap_node_info@map@kmint@@AEAU123@@Z
	??$move@AEAUsaturated@?$quad_tree@$03@play@kmint@@@std@@YA$$QEAUsaturated@?$quad_tree@$03@play@kmint@@AEAU1234@@Z
	??$move@AEAV?$allocator@D@std@@@std@@YA$$QEAV?$allocator@D@0@AEAV10@@Z
	??$move@AEAV?$allocator@V?$unique_ptr@V?$basic_node@Umap_node_info@map@kmint@@@graph@kmint@@U?$default_delete@V?$basic_node@Umap_node_info@map@kmint@@@graph@kmint@@@std@@@std@@@std@@@std@@YA$$QEAV?$allocator@V?$unique_ptr@V?$basic_node@Umap_node_info@map@kmint@@@graph@kmint@@U?$default_delete@V?$basic_node@Umap_node_info@map@kmint@@@graph@kmint@@@std@@@std@@@0@AEAV10@@Z
	??$move@AEAV?$allocator@V?$unique_ptr@V?$basic_node@Uno_node_info@graph@kmint@@@graph@kmint@@U?$default_delete@V?$basic_node@Uno_node_info@graph@kmint@@@graph@kmint@@@std@@@std@@@std@@@std@@YA$$QEAV?$allocator@V?$unique_ptr@V?$basic_node@Uno_node_info@graph@kmint@@@graph@kmint@@U?$default_delete@V?$basic_node@Uno_node_info@graph@kmint@@@graph@kmint@@@std@@@std@@@0@AEAV10@@Z
	??$move@AEAV?$basic_graph@Umap_node_info@map@kmint@@@graph@kmint@@@std@@YA$$QEAV?$basic_graph@Umap_node_info@map@kmint@@@graph@kmint@@AEAV123@@Z
	??$move@AEAV?$basic_istream@DU?$char_traits@D@std@@@std@@@std@@YA$$QEAV?$basic_istream@DU?$char_traits@D@std@@@0@AEAV10@@Z
	??$move@AEAV?$basic_string@DU?$char_traits@D@std@@V?$allocator@D@2@@std@@@std@@YA$$QEAV?$basic_string@DU?$char_traits@D@std@@V?$allocator@D@2@@0@AEAV10@@Z
	??$move@AEAV?$function@$$A6AAEAV?$basic_node@Umap_node_info@map@kmint@@@graph@kmint@@AEAV?$unique_ptr@V?$basic_node@Umap_node_info@map@kmint@@@graph@kmint@@U?$default_delete@V?$basic_node@Umap_node_info@map@kmint@@@graph@kmint@@@std@@@std@@@Z@std@@@std@@YA$$QEAV?$function@$$A6AAEAV?$basic_node@Umap_node_info@map@kmint@@@graph@kmint@@AEAV?$unique_ptr@V?$basic_node@Umap_node_info@map@kmint@@@graph@kmint@@U?$default_delete@V?$basic_node@Umap_node_info@map@kmint@@@graph@kmint@@@std@@@std@@@Z@0@AEAV10@@Z
	??$move@AEAV?$function@$$A6AAEAVactor@play@kmint@@AEAV?$unique_ptr@Vactor@play@kmint@@U?$default_delete@Vactor@play@kmint@@@std@@@std@@@Z@std@@@std@@YA$$QEAV?$function@$$A6AAEAVactor@play@kmint@@AEAV?$unique_ptr@Vactor@play@kmint@@U?$default_delete@Vactor@play@kmint@@@std@@@std@@@Z@0@AEAV10@@Z
	??$move@AEAV?$function@$$A6AAEBVactor@play@kmint@@AEBV?$unique_ptr@Vactor@play@kmint@@U?$default_delete@Vactor@play@kmint@@@std@@@std@@@Z@std@@@std@@YA$$QEAV?$function@$$A6AAEBVactor@play@kmint@@AEBV?$unique_ptr@Vactor@play@kmint@@U?$default_delete@Vactor@play@kmint@@@std@@@std@@@Z@0@AEAV10@@Z
	??$move@AEAV?$tuple@AEBD@std@@@std@@YA$$QEAV?$tuple@AEBD@0@AEAV10@@Z
	??$move@AEAV?$unique_ptr@V?$basic_edge@Umap_node_info@map@kmint@@@graph@kmint@@U?$default_delete@V?$basic_edge@Umap_node_info@map@kmint@@@graph@kmint@@@std@@@std@@@std@@YA$$QEAV?$unique_ptr@V?$basic_edge@Umap_node_info@map@kmint@@@graph@kmint@@U?$default_delete@V?$basic_edge@Umap_node_info@map@kmint@@@graph@kmint@@@std@@@0@AEAV10@@Z
	??$move@AEAV?$unique_ptr@V?$basic_edge@Uno_node_info@graph@kmint@@@graph@kmint@@U?$default_delete@V?$basic_edge@Uno_node_info@graph@kmint@@@graph@kmint@@@std@@@std@@@std@@YA$$QEAV?$unique_ptr@V?$basic_edge@Uno_node_info@graph@kmint@@@graph@kmint@@U?$default_delete@V?$basic_edge@Uno_node_info@graph@kmint@@@graph@kmint@@@std@@@0@AEAV10@@Z
	??$move@AEAV?$unique_ptr@V?$basic_node@Umap_node_info@map@kmint@@@graph@kmint@@U?$default_delete@V?$basic_node@Umap_node_info@map@kmint@@@graph@kmint@@@std@@@std@@@std@@YA$$QEAV?$unique_ptr@V?$basic_node@Umap_node_info@map@kmint@@@graph@kmint@@U?$default_delete@V?$basic_node@Umap_node_info@map@kmint@@@graph@kmint@@@std@@@0@AEAV10@@Z
	??$move@AEAV?$unique_ptr@V?$basic_node@Uno_node_info@graph@kmint@@@graph@kmint@@U?$default_delete@V?$basic_node@Uno_node_info@graph@kmint@@@graph@kmint@@@std@@@std@@@std@@YA$$QEAV?$unique_ptr@V?$basic_node@Uno_node_info@graph@kmint@@@graph@kmint@@U?$default_delete@V?$basic_node@Uno_node_info@graph@kmint@@@graph@kmint@@@std@@@0@AEAV10@@Z
	??$move@AEAV?$unique_ptr@Vactor@play@kmint@@U?$default_delete@Vactor@play@kmint@@@std@@@std@@@std@@YA$$QEAV?$unique_ptr@Vactor@play@kmint@@U?$default_delete@Vactor@play@kmint@@@std@@@0@AEAV10@@Z
	??$read_basic_graph@Uno_node_info@graph@kmint@@@graph@kmint@@YA?AV?$basic_graph@Uno_node_info@graph@kmint@@@01@AEAV?$basic_istream@DU?$char_traits@D@std@@@std@@@Z
	??$to_quadrants@M@math@kmint@@YA?AU?$quadrants@M@01@AEBV?$basic_rectangle@M@01@@Z
	??$uninitialized_fill@PEAV?$_List_unchecked_iterator@V?$_List_val@U?$_List_simple_types@U?$pair@$$CBDV?$vector@PEAV?$basic_node@Umap_node_info@map@kmint@@@graph@kmint@@V?$allocator@PEAV?$basic_node@Umap_node_info@map@kmint@@@graph@kmint@@@std@@@std@@@std@@@std@@@std@@@std@@V12@@std@@YAXQEAV?$_List_unchecked_iterator@V?$_List_val@U?$_List_simple_types@U?$pair@$$CBDV?$vector@PEAV?$basic_node@Umap_node_info@map@kmint@@@graph@kmint@@V?$allocator@PEAV?$basic_node@Umap_node_info@map@kmint@@@graph@kmint@@@std@@@std@@@std@@@std@@@std@@@0@0AEBV10@@Z
	??$use_facet@V?$ctype@D@std@@@std@@YAAEBV?$ctype@D@0@AEBVlocale@0@@Z
	??$visit@U?$overload@V<lambda_1523b8ddba63e718f43ea97c9e0b26ab>@@V<lambda_29327d9d9fb0be4adcefd7095d0faa01>@@@kmint@@AEBV?$variant@Ufree@?$quad_tree@$03@play@kmint@@Usaturated@234@@std@@X@std@@YAX$$QEAU?$overload@V<lambda_1523b8ddba63e718f43ea97c9e0b26ab>@@V<lambda_29327d9d9fb0be4adcefd7095d0faa01>@@@kmint@@AEBV?$variant@Ufree@?$quad_tree@$03@play@kmint@@Usaturated@234@@0@@Z
	??$visit@U?$overload@V<lambda_5e603f1a4bce7b3b42fb0d0c3f008067>@@V<lambda_5b573ddf20ab6b8c519541572a849e86>@@@kmint@@AEBV?$variant@Ufree@?$quad_tree@$03@play@kmint@@Usaturated@234@@std@@X@std@@YAX$$QEAU?$overload@V<lambda_5e603f1a4bce7b3b42fb0d0c3f008067>@@V<lambda_5b573ddf20ab6b8c519541572a849e86>@@@kmint@@AEBV?$variant@Ufree@?$quad_tree@$03@play@kmint@@Usaturated@234@@0@@Z
	??$visit@U?$overload@V<lambda_ad2beb13dbb0cf610997dab0ec383f8b>@@V<lambda_c23fc6e423333c95ae20a61e475ddf2a>@@@kmint@@AEAV?$variant@Ufree@?$quad_tree@$03@play@kmint@@Usaturated@234@@std@@X@std@@YA?AV?$optional@Usaturated@?$quad_tree@$03@play@kmint@@@0@$$QEAU?$overload@V<lambda_ad2beb13dbb0cf610997dab0ec383f8b>@@V<lambda_c23fc6e423333c95ae20a61e475ddf2a>@@@kmint@@AEAV?$variant@Ufree@?$quad_tree@$03@play@kmint@@Usaturated@234@@0@@Z
	??0<lambda_1523b8ddba63e718f43ea97c9e0b26ab>@@QEAA@AEAV?$basic_rectangle@M@math@kmint@@AEAVadd_collision_iterator@play@3@@Z
	??0<lambda_29327d9d9fb0be4adcefd7095d0faa01>@@QEAA@AEAV?$basic_rectangle@M@math@kmint@@AEAVadd_collision_iterator@play@3@@Z
	??0<lambda_5b573ddf20ab6b8c519541572a849e86>@@QEAA@AEAV?$basic_rectangle@M@math@kmint@@AEAVadd_perceived_iterator@play@3@@Z
	??0<lambda_5e603f1a4bce7b3b42fb0d0c3f008067>@@QEAA@AEAV?$basic_rectangle@M@math@kmint@@AEAVadd_perceived_iterator@play@3@@Z
	??0<lambda_ad2beb13dbb0cf610997dab0ec383f8b>@@QEAA@QEAV?$quad_tree@$03@play@kmint@@AEAVactor@23@@Z
	??0<lambda_c23fc6e423333c95ae20a61e475ddf2a>@@QEAA@QEAV?$quad_tree@$03@play@kmint@@AEAVactor@23@@Z
	??0?$_Alloc_construct_ptr@V?$allocator@U?$_List_node@U?$pair@$$CBDV?$vector@PEAV?$basic_node@Umap_node_info@map@kmint@@@graph@kmint@@V?$allocator@PEAV?$basic_node@Umap_node_info@map@kmint@@@graph@kmint@@@std@@@std@@@std@@PEAX@std@@@std@@@std@@QEAA@AEAV?$allocator@U?$_List_node@U?$pair@$$CBDV?$vector@PEAV?$basic_node@Umap_node_info@map@kmint@@@graph@kmint@@V?$allocator@PEAV?$basic_node@Umap_node_info@map@kmint@@@graph@kmint@@@std@@@std@@@std@@PEAX@std@@@1@@Z
	??0?$_Alloc_construct_ptr@V?$allocator@U?$_Tree_node@U?$pair@$$CBDUtile_info@map@kmint@@@std@@PEAX@std@@@std@@@std@@QEAA@AEAV?$allocator@U?$_Tree_node@U?$pair@$$CBDUtile_info@map@kmint@@@std@@PEAX@std@@@1@@Z
	??0?$_Alloc_construct_ptr@V?$allocator@U?$_Tree_node@U?$pair@$$CBV?$basic_string@DU?$char_traits@D@std@@V?$allocator@D@2@@std@@Vtexture@sdl@ui@kmint@@@std@@PEAX@std@@@std@@@std@@QEAA@AEAV?$allocator@U?$_Tree_node@U?$pair@$$CBV?$basic_string@DU?$char_traits@D@std@@V?$allocator@D@2@@std@@Vtexture@sdl@ui@kmint@@@std@@PEAX@std@@@1@@Z
	??0?$_Container_proxy_ptr12@V?$allocator@U_Container_proxy@std@@@std@@@std@@QEAA@AEAV?$allocator@U_Container_proxy@std@@@1@AEAU_Container_base12@1@@Z
	??0?$_Deleted_copy_assign@U?$_Optional_construct_base@Usaturated@?$quad_tree@$03@play@kmint@@@std@@Usaturated@?$quad_tree@$03@play@kmint@@@std@@QEAA@XZ
	??0?$_Func_base@AEAV?$basic_node@Umap_node_info@map@kmint@@@graph@kmint@@AEAV?$unique_ptr@V?$basic_node@Umap_node_info@map@kmint@@@graph@kmint@@U?$default_delete@V?$basic_node@Umap_node_info@map@kmint@@@graph@kmint@@@std@@@std@@@std@@QEAA@XZ
	??0?$_Func_base@AEAVactor@play@kmint@@AEAV?$unique_ptr@Vactor@play@kmint@@U?$default_delete@Vactor@play@kmint@@@std@@@std@@@std@@QEAA@XZ
	??0?$_Func_base@AEBVactor@play@kmint@@AEBV?$unique_ptr@Vactor@play@kmint@@U?$default_delete@Vactor@play@kmint@@@std@@@std@@@std@@QEAA@XZ
	??0?$_Func_class@AEAV?$basic_node@Umap_node_info@map@kmint@@@graph@kmint@@AEAV?$unique_ptr@V?$basic_node@Umap_node_info@map@kmint@@@graph@kmint@@U?$default_delete@V?$basic_node@Umap_node_info@map@kmint@@@graph@kmint@@@std@@@std@@@std@@QEAA@XZ
	??0?$_Func_class@AEAVactor@play@kmint@@AEAV?$unique_ptr@Vactor@play@kmint@@U?$default_delete@Vactor@play@kmint@@@std@@@std@@@std@@QEAA@XZ
	??0?$_Func_class@AEBVactor@play@kmint@@AEBV?$unique_ptr@Vactor@play@kmint@@U?$default_delete@Vactor@play@kmint@@@std@@@std@@@std@@QEAA@XZ
	??0?$_Hash@V?$_Umap_traits@DV?$vector@PEAV?$basic_node@Umap_node_info@map@kmint@@@graph@kmint@@V?$allocator@PEAV?$basic_node@Umap_node_info@map@kmint@@@graph@kmint@@@std@@@std@@V?$_Uhash_compare@DU?$hash@D@std@@U?$equal_to@D@2@@2@V?$allocator@U?$pair@$$CBDV?$vector@PEAV?$basic_node@Umap_node_info@map@kmint@@@graph@kmint@@V?$allocator@PEAV?$basic_node@Umap_node_info@map@kmint@@@graph@kmint@@@std@@@std@@@std@@@2@$0A@@std@@@std@@IEAA@AEBV?$_Uhash_compare@DU?$hash@D@std@@U?$equal_to@D@2@@1@AEBV?$allocator@U?$pair@$$CBDV?$vector@PEAV?$basic_node@Umap_node_info@map@kmint@@@graph@kmint@@V?$allocator@PEAV?$basic_node@Umap_node_info@map@kmint@@@graph@kmint@@@std@@@std@@@std@@@1@@Z
	??0?$_List_unchecked_const_iterator@V?$_List_val@U?$_List_simple_types@U?$pair@$$CBDV?$vector@PEAV?$basic_node@Umap_node_info@map@kmint@@@graph@kmint@@V?$allocator@PEAV?$basic_node@Umap_node_info@map@kmint@@@graph@kmint@@@std@@@std@@@std@@@std@@@std@@U_Iterator_base0@2@@std@@QEAA@PEAU?$_List_node@U?$pair@$$CBDV?$vector@PEAV?$basic_node@Umap_node_info@map@kmint@@@graph@kmint@@V?$allocator@PEAV?$basic_node@Umap_node_info@map@kmint@@@graph@kmint@@@std@@@std@@@std@@PEAX@1@PEBV?$_List_val@U?$_List_simple_types@U?$pair@$$CBDV?$vector@PEAV?$basic_node@Umap_node_info@map@kmint@@@graph@kmint@@V?$allocator@PEAV?$basic_node@Umap_node_info@map@kmint@@@graph@kmint@@@std@@@std@@@std@@@std@@@1@@Z
	??0?$_List_unchecked_iterator@V?$_List_val@U?$_List_simple_types@U?$pair@$$CBDV?$vector@PEAV?$basic_node@Umap_node_info@map@kmint@@@graph@kmint@@V?$allocator@PEAV?$basic_node@Umap_node_info@map@kmint@@@graph@kmint@@@std@@@std@@@std@@@std@@@std@@@std@@QEAA@PEAU?$_List_node@U?$pair@$$CBDV?$vector@PEAV?$basic_node@Umap_node_info@map@kmint@@@graph@kmint@@V?$allocator@PEAV?$basic_node@Umap_node_info@map@kmint@@@graph@kmint@@@std@@@std@@@std@@PEAX@1@PEBV?$_List_val@U?$_List_simple_types@U?$pair@$$CBDV?$vector@PEAV?$basic_node@Umap_node_info@map@kmint@@@graph@kmint@@V?$allocator@PEAV?$basic_node@Umap_node_info@map@kmint@@@graph@kmint@@@std@@@std@@@std@@@std@@@1@@Z
	??0?$_List_val@U?$_List_simple_types@U?$pair@$$CBDV?$vector@PEAV?$basic_node@Umap_node_info@map@kmint@@@graph@kmint@@V?$allocator@PEAV?$basic_node@Umap_node_info@map@kmint@@@graph@kmint@@@std@@@std@@@std@@@std@@@std@@QEAA@XZ
	??0?$_Non_trivial_move@U?$_Optional_construct_base@Usaturated@?$quad_tree@$03@play@kmint@@@std@@Usaturated@?$quad_tree@$03@play@kmint@@@std@@QEAA@XZ
	??0?$_Non_trivial_move_assign@U?$_Optional_construct_base@Usaturated@?$quad_tree@$03@play@kmint@@@std@@Usaturated@?$quad_tree@$03@play@kmint@@@std@@QEAA@XZ
	??0?$_Optional_construct_base@Usaturated@?$quad_tree@$03@play@kmint@@@std@@QEAA@XZ
	??0?$_Optional_destruct_base@Usaturated@?$quad_tree@$03@play@kmint@@$0A@@std@@QEAA@XZ
	??0?$_Rng_from_urng@IV?$mersenne_twister_engine@I$0CA@$0CHA@$0BIN@$0BP@$0JJAILANP@$0L@$0PPPPPPPP@$06$0JNCMFGIA@$0P@$0OPMGAAAA@$0BC@$0GMAHIJGF@@std@@@std@@QEAA@AEAV?$mersenne_twister_engine@I$0CA@$0CHA@$0BIN@$0BP@$0JJAILANP@$0L@$0PPPPPPPP@$06$0JNCMFGIA@$0P@$0OPMGAAAA@$0BC@$0GMAHIJGF@@1@@Z
	??0?$_String_val@U?$_Simple_types@D@std@@@std@@QEAA@XZ
	??0?$_Tree@V?$_Tmap_traits@DUtile_info@map@kmint@@U?$less@D@std@@V?$allocator@U?$pair@$$CBDUtile_info@map@kmint@@@std@@@5@$0A@@std@@@std@@QEAA@AEBU?$less@D@1@@Z
	??0?$_Tree@V?$_Tmap_traits@V?$basic_string@DU?$char_traits@D@std@@V?$allocator@D@2@@std@@Vtexture@sdl@ui@kmint@@U?$less@V?$basic_string@DU?$char_traits@D@std@@V?$allocator@D@2@@std@@@2@V?$allocator@U?$pair@$$CBV?$basic_string@DU?$char_traits@D@std@@V?$allocator@D@2@@std@@Vtexture@sdl@ui@kmint@@@std@@@2@$0A@@std@@@std@@QEAA@AEBU?$less@V?$basic_string@DU?$char_traits@D@std@@V?$allocator@D@2@@std@@@1@@Z
	??0?$_Tree_const_iterator@V?$_Tree_val@U?$_Tree_simple_types@U?$pair@$$CBDUtile_info@map@kmint@@@std@@@std@@@std@@@std@@QEAA@$$QEAV01@@Z
	??0?$_Tree_const_iterator@V?$_Tree_val@U?$_Tree_simple_types@U?$pair@$$CBDUtile_info@map@kmint@@@std@@@std@@@std@@@std@@QEAA@PEAU?$_Tree_node@U?$pair@$$CBDUtile_info@map@kmint@@@std@@PEAX@1@PEBV?$_Tree_val@U?$_Tree_simple_types@U?$pair@$$CBDUtile_info@map@kmint@@@std@@@std@@@1@@Z
	??0?$_Tree_const_iterator@V?$_Tree_val@U?$_Tree_simple_types@U?$pair@$$CBV?$basic_string@DU?$char_traits@D@std@@V?$allocator@D@2@@std@@Vtexture@sdl@ui@kmint@@@std@@@std@@@std@@@std@@QEAA@$$QEAV01@@Z
	??0?$_Tree_const_iterator@V?$_Tree_val@U?$_Tree_simple_types@U?$pair@$$CBV?$basic_string@DU?$char_traits@D@std@@V?$allocator@D@2@@std@@Vtexture@sdl@ui@kmint@@@std@@@std@@@std@@@std@@QEAA@PEAU?$_Tree_node@U?$pair@$$CBV?$basic_string@DU?$char_traits@D@std@@V?$allocator@D@2@@std@@Vtexture@sdl@ui@kmint@@@std@@PEAX@1@PEBV?$_Tree_val@U?$_Tree_simple_types@U?$pair@$$CBV?$basic_string@DU?$char_traits@D@std@@V?$allocator@D@2@@std@@Vtexture@sdl@ui@kmint@@@std@@@std@@@1@@Z
	??0?$_Tree_head_scoped_ptr@V?$allocator@U?$_Tree_node@U?$pair@$$CBDUtile_info@map@kmint@@@std@@PEAX@std@@@std@@V?$_Tree_val@U?$_Tree_simple_types@U?$pair@$$CBDUtile_info@map@kmint@@@std@@@std@@@2@@std@@QEAA@AEAV?$allocator@U?$_Tree_node@U?$pair@$$CBDUtile_info@map@kmint@@@std@@PEAX@std@@@1@AEAV?$_Tree_val@U?$_Tree_simple_types@U?$pair@$$CBDUtile_info@map@kmint@@@std@@@std@@@1@@Z
	??0?$_Tree_iterator@V?$_Tree_val@U?$_Tree_simple_types@U?$pair@$$CBDUtile_info@map@kmint@@@std@@@std@@@std@@@std@@QEAA@$$QEAV01@@Z
	??0?$_Tree_iterator@V?$_Tree_val@U?$_Tree_simple_types@U?$pair@$$CBDUtile_info@map@kmint@@@std@@@std@@@std@@@std@@QEAA@PEAU?$_Tree_node@U?$pair@$$CBDUtile_info@map@kmint@@@std@@PEAX@1@PEBV?$_Tree_val@U?$_Tree_simple_types@U?$pair@$$CBDUtile_info@map@kmint@@@std@@@std@@@1@@Z
	??0?$_Tree_iterator@V?$_Tree_val@U?$_Tree_simple_types@U?$pair@$$CBV?$basic_string@DU?$char_traits@D@std@@V?$allocator@D@2@@std@@Vtexture@sdl@ui@kmint@@@std@@@std@@@std@@@std@@QEAA@$$QEAV01@@Z
	??0?$_Tree_iterator@V?$_Tree_val@U?$_Tree_simple_types@U?$pair@$$CBV?$basic_string@DU?$char_traits@D@std@@V?$allocator@D@2@@std@@Vtexture@sdl@ui@kmint@@@std@@@std@@@std@@@std@@QEAA@PEAU?$_Tree_node@U?$pair@$$CBV?$basic_string@DU?$char_traits@D@std@@V?$allocator@D@2@@std@@Vtexture@sdl@ui@kmint@@@std@@PEAX@1@PEBV?$_Tree_val@U?$_Tree_simple_types@U?$pair@$$CBV?$basic_string@DU?$char_traits@D@std@@V?$allocator@D@2@@std@@Vtexture@sdl@ui@kmint@@@std@@@std@@@1@@Z
	??0?$_Tree_temp_node_alloc@V?$allocator@U?$_Tree_node@U?$pair@$$CBDUtile_info@map@kmint@@@std@@PEAX@std@@@std@@@std@@QEAA@AEAV?$allocator@U?$_Tree_node@U?$pair@$$CBDUtile_info@map@kmint@@@std@@PEAX@std@@@1@@Z
	??0?$_Tree_temp_node_alloc@V?$allocator@U?$_Tree_node@U?$pair@$$CBV?$basic_string@DU?$char_traits@D@std@@V?$allocator@D@2@@std@@Vtexture@sdl@ui@kmint@@@std@@PEAX@std@@@std@@@std@@QEAA@AEAV?$allocator@U?$_Tree_node@U?$pair@$$CBV?$basic_string@DU?$char_traits@D@std@@V?$allocator@D@2@@std@@Vtexture@sdl@ui@kmint@@@std@@PEAX@std@@@1@@Z
	??0?$_Tree_unchecked_const_iterator@V?$_Tree_val@U?$_Tree_simple_types@U?$pair@$$CBDUtile_info@map@kmint@@@std@@@std@@@std@@U_Iterator_base12@2@@std@@QEAA@$$QEAV01@@Z
	??0?$_Tree_unchecked_const_iterator@V?$_Tree_val@U?$_Tree_simple_types@U?$pair@$$CBDUtile_info@map@kmint@@@std@@@std@@@std@@U_Iterator_base12@2@@std@@QEAA@PEAU?$_Tree_node@U?$pair@$$CBDUtile_info@map@kmint@@@std@@PEAX@1@PEBV?$_Tree_val@U?$_Tree_simple_types@U?$pair@$$CBDUtile_info@map@kmint@@@std@@@std@@@1@@Z
	??0?$_Tree_unchecked_const_iterator@V?$_Tree_val@U?$_Tree_simple_types@U?$pair@$$CBV?$basic_string@DU?$char_traits@D@std@@V?$allocator@D@2@@std@@Vtexture@sdl@ui@kmint@@@std@@@std@@@std@@U_Iterator_base12@2@@std@@QEAA@$$QEAV01@@Z
	??0?$_Tree_unchecked_const_iterator@V?$_Tree_val@U?$_Tree_simple_types@U?$pair@$$CBV?$basic_string@DU?$char_traits@D@std@@V?$allocator@D@2@@std@@Vtexture@sdl@ui@kmint@@@std@@@std@@@std@@U_Iterator_base12@2@@std@@QEAA@PEAU?$_Tree_node@U?$pair@$$CBV?$basic_string@DU?$char_traits@D@std@@V?$allocator@D@2@@std@@Vtexture@sdl@ui@kmint@@@std@@PEAX@1@PEBV?$_Tree_val@U?$_Tree_simple_types@U?$pair@$$CBV?$basic_string@DU?$char_traits@D@std@@V?$allocator@D@2@@std@@Vtexture@sdl@ui@kmint@@@std@@@std@@@1@@Z
	??0?$_Tree_val@U?$_Tree_simple_types@U?$pair@$$CBDUtile_info@map@kmint@@@std@@@std@@@std@@QEAA@XZ
	??0?$_Tree_val@U?$_Tree_simple_types@U?$pair@$$CBV?$basic_string@DU?$char_traits@D@std@@V?$allocator@D@2@@std@@Vtexture@sdl@ui@kmint@@@std@@@std@@@std@@QEAA@XZ
	??0?$_Uhash_compare@DU?$hash@D@std@@U?$equal_to@D@2@@std@@QEAA@XZ
	??0?$_Umap_traits@DV?$vector@PEAV?$basic_node@Umap_node_info@map@kmint@@@graph@kmint@@V?$allocator@PEAV?$basic_node@Umap_node_info@map@kmint@@@graph@kmint@@@std@@@std@@V?$_Uhash_compare@DU?$hash@D@std@@U?$equal_to@D@2@@2@V?$allocator@U?$pair@$$CBDV?$vector@PEAV?$basic_node@Umap_node_info@map@kmint@@@graph@kmint@@V?$allocator@PEAV?$basic_node@Umap_node_info@map@kmint@@@graph@kmint@@@std@@@std@@@std@@@2@$0A@@std@@QEAA@AEBV?$_Uhash_compare@DU?$hash@D@std@@U?$equal_to@D@2@@1@@Z
	??0?$_Uninitialized_backout@PEAV?$_List_unchecked_iterator@V?$_List_val@U?$_List_simple_types@U?$pair@$$CBDV?$vector@PEAV?$basic_node@Umap_node_info@map@kmint@@@graph@kmint@@V?$allocator@PEAV?$basic_node@Umap_node_info@map@kmint@@@graph@kmint@@@std@@@std@@@std@@@std@@@std@@@std@@@std@@QEAA@PEAV?$_List_unchecked_iterator@V?$_List_val@U?$_List_simple_types@U?$pair@$$CBDV?$vector@PEAV?$basic_node@Umap_node_info@map@kmint@@@graph@kmint@@V?$allocator@PEAV?$basic_node@Umap_node_info@map@kmint@@@graph@kmint@@@std@@@std@@@std@@@std@@@std@@@1@@Z
	??0?$_Uninitialized_backout_al@V?$allocator@H@std@@@std@@QEAA@PEAHAEAV?$allocator@H@1@@Z
	??0?$_Uninitialized_backout_al@V?$allocator@V?$unique_ptr@V?$basic_edge@Umap_node_info@map@kmint@@@graph@kmint@@U?$default_delete@V?$basic_edge@Umap_node_info@map@kmint@@@graph@kmint@@@std@@@std@@@std@@@std@@QEAA@PEAV?$unique_ptr@V?$basic_edge@Umap_node_info@map@kmint@@@graph@kmint@@U?$default_delete@V?$basic_edge@Umap_node_info@map@kmint@@@graph@kmint@@@std@@@1@AEAV?$allocator@V?$unique_ptr@V?$basic_edge@Umap_node_info@map@kmint@@@graph@kmint@@U?$default_delete@V?$basic_edge@Umap_node_info@map@kmint@@@graph@kmint@@@std@@@std@@@1@@Z
	??0?$_Uninitialized_backout_al@V?$allocator@V?$unique_ptr@V?$basic_edge@Uno_node_info@graph@kmint@@@graph@kmint@@U?$default_delete@V?$basic_edge@Uno_node_info@graph@kmint@@@graph@kmint@@@std@@@std@@@std@@@std@@QEAA@PEAV?$unique_ptr@V?$basic_edge@Uno_node_info@graph@kmint@@@graph@kmint@@U?$default_delete@V?$basic_edge@Uno_node_info@graph@kmint@@@graph@kmint@@@std@@@1@AEAV?$allocator@V?$unique_ptr@V?$basic_edge@Uno_node_info@graph@kmint@@@graph@kmint@@U?$default_delete@V?$basic_edge@Uno_node_info@graph@kmint@@@graph@kmint@@@std@@@std@@@1@@Z
	??0?$_Uninitialized_backout_al@V?$allocator@V?$unique_ptr@V?$basic_node@Umap_node_info@map@kmint@@@graph@kmint@@U?$default_delete@V?$basic_node@Umap_node_info@map@kmint@@@graph@kmint@@@std@@@std@@@std@@@std@@QEAA@PEAV?$unique_ptr@V?$basic_node@Umap_node_info@map@kmint@@@graph@kmint@@U?$default_delete@V?$basic_node@Umap_node_info@map@kmint@@@graph@kmint@@@std@@@1@AEAV?$allocator@V?$unique_ptr@V?$basic_node@Umap_node_info@map@kmint@@@graph@kmint@@U?$default_delete@V?$basic_node@Umap_node_info@map@kmint@@@graph@kmint@@@std@@@std@@@1@@Z
	??0?$_Uninitialized_backout_al@V?$allocator@V?$unique_ptr@V?$basic_node@Uno_node_info@graph@kmint@@@graph@kmint@@U?$default_delete@V?$basic_node@Uno_node_info@graph@kmint@@@graph@kmint@@@std@@@std@@@std@@@std@@QEAA@PEAV?$unique_ptr@V?$basic_node@Uno_node_info@graph@kmint@@@graph@kmint@@U?$default_delete@V?$basic_node@Uno_node_info@graph@kmint@@@graph@kmint@@@std@@@1@AEAV?$allocator@V?$unique_ptr@V?$basic_node@Uno_node_info@graph@kmint@@@graph@kmint@@U?$default_delete@V?$basic_node@Uno_node_info@graph@kmint@@@graph@kmint@@@std@@@std@@@1@@Z
	??0?$_Vector_const_iterator@V?$_Vector_val@U?$_Simple_types@V?$unique_ptr@V?$basic_node@Umap_node_info@map@kmint@@@graph@kmint@@U?$default_delete@V?$basic_node@Umap_node_info@map@kmint@@@graph@kmint@@@std@@@std@@@std@@@std@@@std@@QEAA@AEBV01@@Z
	??0?$_Vector_const_iterator@V?$_Vector_val@U?$_Simple_types@V?$unique_ptr@V?$basic_node@Umap_node_info@map@kmint@@@graph@kmint@@U?$default_delete@V?$basic_node@Umap_node_info@map@kmint@@@graph@kmint@@@std@@@std@@@std@@@std@@@std@@QEAA@PEAV?$unique_ptr@V?$basic_node@Umap_node_info@map@kmint@@@graph@kmint@@U?$default_delete@V?$basic_node@Umap_node_info@map@kmint@@@graph@kmint@@@std@@@1@PEBU_Container_base12@1@@Z
	??0?$_Vector_const_iterator@V?$_Vector_val@U?$_Simple_types@V?$unique_ptr@Vactor@play@kmint@@U?$default_delete@Vactor@play@kmint@@@std@@@std@@@std@@@std@@@std@@QEAA@$$QEAV01@@Z
	??0?$_Vector_const_iterator@V?$_Vector_val@U?$_Simple_types@V?$unique_ptr@Vactor@play@kmint@@U?$default_delete@Vactor@play@kmint@@@std@@@std@@@std@@@std@@@std@@QEAA@AEBV01@@Z
	??0?$_Vector_const_iterator@V?$_Vector_val@U?$_Simple_types@V?$unique_ptr@Vactor@play@kmint@@U?$default_delete@Vactor@play@kmint@@@std@@@std@@@std@@@std@@@std@@QEAA@PEAV?$unique_ptr@Vactor@play@kmint@@U?$default_delete@Vactor@play@kmint@@@std@@@1@PEBU_Container_base12@1@@Z
	??0?$_Vector_iterator@V?$_Vector_val@U?$_Simple_types@V?$unique_ptr@V?$basic_node@Umap_node_info@map@kmint@@@graph@kmint@@U?$default_delete@V?$basic_node@Umap_node_info@map@kmint@@@graph@kmint@@@std@@@std@@@std@@@std@@@std@@QEAA@AEBV01@@Z
	??0?$_Vector_iterator@V?$_Vector_val@U?$_Simple_types@V?$unique_ptr@V?$basic_node@Umap_node_info@map@kmint@@@graph@kmint@@U?$default_delete@V?$basic_node@Umap_node_info@map@kmint@@@graph@kmint@@@std@@@std@@@std@@@std@@@std@@QEAA@PEAV?$unique_ptr@V?$basic_node@Umap_node_info@map@kmint@@@graph@kmint@@U?$default_delete@V?$basic_node@Umap_node_info@map@kmint@@@graph@kmint@@@std@@@1@PEBU_Container_base12@1@@Z
	??0?$_Vector_iterator@V?$_Vector_val@U?$_Simple_types@V?$unique_ptr@Vactor@play@kmint@@U?$default_delete@Vactor@play@kmint@@@std@@@std@@@std@@@std@@@std@@QEAA@$$QEAV01@@Z
	??0?$_Vector_iterator@V?$_Vector_val@U?$_Simple_types@V?$unique_ptr@Vactor@play@kmint@@U?$default_delete@Vactor@play@kmint@@@std@@@std@@@std@@@std@@@std@@QEAA@AEBV01@@Z
	??0?$_Vector_iterator@V?$_Vector_val@U?$_Simple_types@V?$unique_ptr@Vactor@play@kmint@@U?$default_delete@Vactor@play@kmint@@@std@@@std@@@std@@@std@@@std@@QEAA@PEAV?$unique_ptr@Vactor@play@kmint@@U?$default_delete@Vactor@play@kmint@@@std@@@1@PEBU_Container_base12@1@@Z
	??0?$_Vector_val@U?$_Simple_types@D@std@@@std@@QEAA@XZ
	??0?$_Vector_val@U?$_Simple_types@H@std@@@std@@QEAA@XZ
	??0?$_Vector_val@U?$_Simple_types@PEAV?$basic_node@Umap_node_info@map@kmint@@@graph@kmint@@@std@@@std@@QEAA@XZ
	??0?$_Vector_val@U?$_Simple_types@V?$_List_unchecked_iterator@V?$_List_val@U?$_List_simple_types@U?$pair@$$CBDV?$vector@PEAV?$basic_node@Umap_node_info@map@kmint@@@graph@kmint@@V?$allocator@PEAV?$basic_node@Umap_node_info@map@kmint@@@graph@kmint@@@std@@@std@@@std@@@std@@@std@@@std@@@std@@@std@@QEAA@XZ
	??0?$_Vector_val@U?$_Simple_types@V?$unique_ptr@V?$basic_edge@Umap_node_info@map@kmint@@@graph@kmint@@U?$default_delete@V?$basic_edge@Umap_node_info@map@kmint@@@graph@kmint@@@std@@@std@@@std@@@std@@QEAA@XZ
	??0?$_Vector_val@U?$_Simple_types@V?$unique_ptr@V?$basic_edge@Uno_node_info@graph@kmint@@@graph@kmint@@U?$default_delete@V?$basic_edge@Uno_node_info@graph@kmint@@@graph@kmint@@@std@@@std@@@std@@@std@@QEAA@XZ
	??0?$_Vector_val@U?$_Simple_types@V?$unique_ptr@V?$basic_node@Umap_node_info@map@kmint@@@graph@kmint@@U?$default_delete@V?$basic_node@Umap_node_info@map@kmint@@@graph@kmint@@@std@@@std@@@std@@@std@@QEAA@XZ
	??0?$_Vector_val@U?$_Simple_types@V?$unique_ptr@V?$basic_node@Uno_node_info@graph@kmint@@@graph@kmint@@U?$default_delete@V?$basic_node@Uno_node_info@graph@kmint@@@graph@kmint@@@std@@@std@@@std@@@std@@QEAA@XZ
	??0?$allocator@D@std@@QEAA@XZ
	??0?$allocator@H@std@@QEAA@XZ
	??0?$allocator@PEAV?$basic_node@Umap_node_info@map@kmint@@@graph@kmint@@@std@@QEAA@XZ
	??0?$allocator@U?$_Tree_node@U?$pair@$$CBDUtile_info@map@kmint@@@std@@PEAX@std@@@std@@QEAA@XZ
	??0?$allocator@U?$_Tree_node@U?$pair@$$CBV?$basic_string@DU?$char_traits@D@std@@V?$allocator@D@2@@std@@Vtexture@sdl@ui@kmint@@@std@@PEAX@std@@@std@@QEAA@XZ
	??0?$allocator@U?$pair@$$CBDV?$vector@PEAV?$basic_node@Umap_node_info@map@kmint@@@graph@kmint@@V?$allocator@PEAV?$basic_node@Umap_node_info@map@kmint@@@graph@kmint@@@std@@@std@@@std@@@std@@QEAA@XZ
	??0?$allocator@V?$unique_ptr@V?$basic_edge@Umap_node_info@map@kmint@@@graph@kmint@@U?$default_delete@V?$basic_edge@Umap_node_info@map@kmint@@@graph@kmint@@@std@@@std@@@std@@QEAA@XZ
	??0?$allocator@V?$unique_ptr@V?$basic_edge@Uno_node_info@graph@kmint@@@graph@kmint@@U?$default_delete@V?$basic_edge@Uno_node_info@graph@kmint@@@graph@kmint@@@std@@@std@@@std@@QEAA@XZ
	??0?$allocator@V?$unique_ptr@V?$basic_node@Umap_node_info@map@kmint@@@graph@kmint@@U?$default_delete@V?$basic_node@Umap_node_info@map@kmint@@@graph@kmint@@@std@@@std@@@std@@QEAA@XZ
	??0?$allocator@V?$unique_ptr@V?$basic_node@Uno_node_info@graph@kmint@@@graph@kmint@@U?$default_delete@V?$basic_node@Uno_node_info@graph@kmint@@@graph@kmint@@@std@@@std@@@std@@QEAA@XZ
	??0?$back_insert_iterator@V?$vector@DV?$allocator@D@std@@@std@@@std@@QEAA@AEAV?$vector@DV?$allocator@D@std@@@1@@Z
	??0?$basic_edge@Umap_node_info@map@kmint@@@graph@kmint@@QEAA@AEAV?$basic_node@Umap_node_info@map@kmint@@@12@0M@Z
	??0?$basic_edge@Uno_node_info@graph@kmint@@@graph@kmint@@QEAA@AEAV?$basic_node@Uno_node_info@graph@kmint@@@12@0M@Z
	??0?$basic_graph@Umap_node_info@map@kmint@@@graph@kmint@@QEAA@$$QEAV012@@Z
	??0?$basic_graph@Umap_node_info@map@kmint@@@graph@kmint@@QEAA@XZ
	??0?$basic_graph@Uno_node_info@graph@kmint@@@graph@kmint@@QEAA@$$QEAV012@@Z
	??0?$basic_graph@Uno_node_info@graph@kmint@@@graph@kmint@@QEAA@XZ
	??0?$basic_istringstream@DU?$char_traits@D@std@@V?$allocator@D@2@@std@@QEAA@AEBV?$basic_string@DU?$char_traits@D@std@@V?$allocator@D@2@@1@H@Z
	??0?$basic_node@Umap_node_info@map@kmint@@@graph@kmint@@AEAA@_KV?$basic_vector2d@M@math@2@$$QEAUmap_node_info@map@2@@Z
	??0?$basic_node@Uno_node_info@graph@kmint@@@graph@kmint@@AEAA@_KV?$basic_vector2d@M@math@2@AEBUno_node_info@12@@Z
	??0?$basic_rectangle@M@math@kmint@@QEAA@V?$basic_vector2d@M@12@V?$basic_size@M@12@@Z
	??0?$basic_size@H@math@kmint@@QEAA@HH@Z
	??0?$basic_size@H@math@kmint@@QEAA@XZ
	??0?$basic_size@M@math@kmint@@QEAA@MM@Z
	??0?$basic_string@DU?$char_traits@D@std@@V?$allocator@D@2@@std@@QEAA@$$QEAV01@@Z
	??0?$basic_string@DU?$char_traits@D@std@@V?$allocator@D@2@@std@@QEAA@AEBV01@@Z
	??0?$basic_string@DU?$char_traits@D@std@@V?$allocator@D@2@@std@@QEAA@QEBD@Z
	??0?$basic_string@DU?$char_traits@D@std@@V?$allocator@D@2@@std@@QEAA@U_String_constructor_concat_tag@1@AEBV01@QEBD_K23@Z
	??0?$basic_string@DU?$char_traits@D@std@@V?$allocator@D@2@@std@@QEAA@XZ
	??0?$basic_stringbuf@DU?$char_traits@D@std@@V?$allocator@D@2@@std@@QEAA@AEBV?$basic_string@DU?$char_traits@D@std@@V?$allocator@D@2@@1@H@Z
	??0?$basic_vector2d@M@math@kmint@@QEAA@MM@Z
	??0?$basic_vector2d@M@math@kmint@@QEAA@XZ
	??0?$fpos@U_Mbstatet@@@std@@QEAA@_J@Z
	??0?$function@$$A6AAEAV?$basic_node@Umap_node_info@map@kmint@@@graph@kmint@@AEAV?$unique_ptr@V?$basic_node@Umap_node_info@map@kmint@@@graph@kmint@@U?$default_delete@V?$basic_node@Umap_node_info@map@kmint@@@graph@kmint@@@std@@@std@@@Z@std@@QEAA@$$QEAV01@@Z
	??0?$function@$$A6AAEAV?$basic_node@Umap_node_info@map@kmint@@@graph@kmint@@AEAV?$unique_ptr@V?$basic_node@Umap_node_info@map@kmint@@@graph@kmint@@U?$default_delete@V?$basic_node@Umap_node_info@map@kmint@@@graph@kmint@@@std@@@std@@@Z@std@@QEAA@AEBV01@@Z
	??0?$function@$$A6AAEAVactor@play@kmint@@AEAV?$unique_ptr@Vactor@play@kmint@@U?$default_delete@Vactor@play@kmint@@@std@@@std@@@Z@std@@QEAA@$$QEAV01@@Z
	??0?$function@$$A6AAEAVactor@play@kmint@@AEAV?$unique_ptr@Vactor@play@kmint@@U?$default_delete@Vactor@play@kmint@@@std@@@std@@@Z@std@@QEAA@AEBV01@@Z
	??0?$function@$$A6AAEBVactor@play@kmint@@AEBV?$unique_ptr@Vactor@play@kmint@@U?$default_delete@Vactor@play@kmint@@@std@@@std@@@Z@std@@QEAA@$$QEAV01@@Z
	??0?$istream_iterator@DDU?$char_traits@D@std@@_J@std@@QEAA@AEAV?$basic_istream@DU?$char_traits@D@std@@@1@@Z
	??0?$istream_iterator@DDU?$char_traits@D@std@@_J@std@@QEAA@XZ
	??0?$list@U?$pair@$$CBDV?$vector@PEAV?$basic_node@Umap_node_info@map@kmint@@@graph@kmint@@V?$allocator@PEAV?$basic_node@Umap_node_info@map@kmint@@@graph@kmint@@@std@@@std@@@std@@V?$allocator@U?$pair@$$CBDV?$vector@PEAV?$basic_node@Umap_node_info@map@kmint@@@graph@kmint@@V?$allocator@PEAV?$basic_node@Umap_node_info@map@kmint@@@graph@kmint@@@std@@@std@@@std@@@2@@std@@QEAA@AEBV?$allocator@U?$pair@$$CBDV?$vector@PEAV?$basic_node@Umap_node_info@map@kmint@@@graph@kmint@@V?$allocator@PEAV?$basic_node@Umap_node_info@map@kmint@@@graph@kmint@@@std@@@std@@@std@@@1@@Z
	??0?$map@DUtile_info@0kmint@@U?$less@D@std@@V?$allocator@U?$pair@$$CBDUtile_info@map@kmint@@@std@@@4@@std@@QEAA@AEBV01@@Z
	??0?$map@DUtile_info@0kmint@@U?$less@D@std@@V?$allocator@U?$pair@$$CBDUtile_info@map@kmint@@@std@@@4@@std@@QEAA@XZ
	??0?$map@V?$basic_string@DU?$char_traits@D@std@@V?$allocator@D@2@@std@@Vtexture@sdl@ui@kmint@@U?$less@V?$basic_string@DU?$char_traits@D@std@@V?$allocator@D@2@@std@@@2@V?$allocator@U?$pair@$$CBV?$basic_string@DU?$char_traits@D@std@@V?$allocator@D@2@@std@@Vtexture@sdl@ui@kmint@@@std@@@2@@std@@QEAA@XZ
	??0?$mersenne_twister@I$0CA@$0CHA@$0BIN@$0BP@$0JJAILANP@$0L@$06$0JNCMFGIA@$0P@$0OPMGAAAA@$0BC@@std@@QEAA@III@Z
	??0?$mersenne_twister_engine@I$0CA@$0CHA@$0BIN@$0BP@$0JJAILANP@$0L@$0PPPPPPPP@$06$0JNCMFGIA@$0P@$0OPMGAAAA@$0BC@$0GMAHIJGF@@std@@QEAA@I@Z
	??0?$optional@Usaturated@?$quad_tree@$03@play@kmint@@@std@@QEAA@XZ
	??0?$quad_tree@$03@play@kmint@@QEAA@V?$basic_rectangle@M@math@2@@Z
	??0?$tuple@$$V@std@@QEAA@AEBV01@@Z
	??0?$tuple@$$V@std@@QEAA@XZ
	??0?$tuple@AEBD@std@@QEAA@$$QEAV01@@Z
	??0?$uniform_int@H@std@@QEAA@HH@Z
	??0?$uniform_int_distribution@H@std@@QEAA@HH@Z
	??0?$uniform_real@M@std@@QEAA@MM@Z
	??0?$uniform_real_distribution@M@std@@QEAA@MM@Z
	??0?$unordered_map@DV?$vector@PEAV?$basic_node@Umap_node_info@map@kmint@@@graph@kmint@@V?$allocator@PEAV?$basic_node@Umap_node_info@map@kmint@@@graph@kmint@@@std@@@std@@U?$hash@D@2@U?$equal_to@D@2@V?$allocator@U?$pair@$$CBDV?$vector@PEAV?$basic_node@Umap_node_info@map@kmint@@@graph@kmint@@V?$allocator@PEAV?$basic_node@Umap_node_info@map@kmint@@@graph@kmint@@@std@@@std@@@std@@@2@@std@@QEAA@XZ
	??0?$vector@DV?$allocator@D@std@@@std@@QEAA@AEBV01@@Z
	??0?$vector@DV?$allocator@D@std@@@std@@QEAA@XZ
	??0?$vector@HV?$allocator@H@std@@@std@@QEAA@_KAEBHAEBV?$allocator@H@1@@Z
	??0?$vector@PEAV?$basic_node@Umap_node_info@map@kmint@@@graph@kmint@@V?$allocator@PEAV?$basic_node@Umap_node_info@map@kmint@@@graph@kmint@@@std@@@std@@QEAA@XZ
	??0?$vector@V?$unique_ptr@V?$basic_edge@Umap_node_info@map@kmint@@@graph@kmint@@U?$default_delete@V?$basic_edge@Umap_node_info@map@kmint@@@graph@kmint@@@std@@@std@@V?$allocator@V?$unique_ptr@V?$basic_edge@Umap_node_info@map@kmint@@@graph@kmint@@U?$default_delete@V?$basic_edge@Umap_node_info@map@kmint@@@graph@kmint@@@std@@@std@@@2@@std@@QEAA@XZ
	??0?$vector@V?$unique_ptr@V?$basic_edge@Uno_node_info@graph@kmint@@@graph@kmint@@U?$default_delete@V?$basic_edge@Uno_node_info@graph@kmint@@@graph@kmint@@@std@@@std@@V?$allocator@V?$unique_ptr@V?$basic_edge@Uno_node_info@graph@kmint@@@graph@kmint@@U?$default_delete@V?$basic_edge@Uno_node_info@graph@kmint@@@graph@kmint@@@std@@@std@@@2@@std@@QEAA@XZ
	??0?$vector@V?$unique_ptr@V?$basic_node@Umap_node_info@map@kmint@@@graph@kmint@@U?$default_delete@V?$basic_node@Umap_node_info@map@kmint@@@graph@kmint@@@std@@@std@@V?$allocator@V?$unique_ptr@V?$basic_node@Umap_node_info@map@kmint@@@graph@kmint@@U?$default_delete@V?$basic_node@Umap_node_info@map@kmint@@@graph@kmint@@@std@@@std@@@2@@std@@QEAA@$$QEAV01@@Z
	??0?$vector@V?$unique_ptr@V?$basic_node@Umap_node_info@map@kmint@@@graph@kmint@@U?$default_delete@V?$basic_node@Umap_node_info@map@kmint@@@graph@kmint@@@std@@@std@@V?$allocator@V?$unique_ptr@V?$basic_node@Umap_node_info@map@kmint@@@graph@kmint@@U?$default_delete@V?$basic_node@Umap_node_info@map@kmint@@@graph@kmint@@@std@@@std@@@2@@std@@QEAA@XZ
	??0?$vector@V?$unique_ptr@V?$basic_node@Uno_node_info@graph@kmint@@@graph@kmint@@U?$default_delete@V?$basic_node@Uno_node_info@graph@kmint@@@graph@kmint@@@std@@@std@@V?$allocator@V?$unique_ptr@V?$basic_node@Uno_node_info@graph@kmint@@@graph@kmint@@U?$default_delete@V?$basic_node@Uno_node_info@graph@kmint@@@graph@kmint@@@std@@@std@@@2@@std@@QEAA@$$QEAV01@@Z
	??0?$vector@V?$unique_ptr@V?$basic_node@Uno_node_info@graph@kmint@@@graph@kmint@@U?$default_delete@V?$basic_node@Uno_node_info@graph@kmint@@@graph@kmint@@@std@@@std@@V?$allocator@V?$unique_ptr@V?$basic_node@Uno_node_info@graph@kmint@@@graph@kmint@@U?$default_delete@V?$basic_node@Uno_node_info@graph@kmint@@@graph@kmint@@@std@@@std@@@2@@std@@QEAA@XZ
	??0?$wrapped_iterator@$$CBVactor@play@kmint@@V?$_Vector_const_iterator@V?$_Vector_val@U?$_Simple_types@V?$unique_ptr@Vactor@play@kmint@@U?$default_delete@Vactor@play@kmint@@@std@@@std@@@std@@@std@@@std@@@util@kmint@@QEAA@V?$_Vector_const_iterator@V?$_Vector_val@U?$_Simple_types@V?$unique_ptr@Vactor@play@kmint@@U?$default_delete@Vactor@play@kmint@@@std@@@std@@@std@@@std@@@std@@V?$function@$$A6AAEBVactor@play@kmint@@AEBV?$unique_ptr@Vactor@play@kmint@@U?$default_delete@Vactor@play@kmint@@@std@@@std@@@Z@4@@Z
	??0?$wrapped_iterator@V?$basic_node@Umap_node_info@map@kmint@@@graph@kmint@@V?$_Vector_iterator@V?$_Vector_val@U?$_Simple_types@V?$unique_ptr@V?$basic_node@Umap_node_info@map@kmint@@@graph@kmint@@U?$default_delete@V?$basic_node@Umap_node_info@map@kmint@@@graph@kmint@@@std@@@std@@@std@@@std@@@std@@@util@kmint@@QEAA@AEBV012@@Z
	??0?$wrapped_iterator@V?$basic_node@Umap_node_info@map@kmint@@@graph@kmint@@V?$_Vector_iterator@V?$_Vector_val@U?$_Simple_types@V?$unique_ptr@V?$basic_node@Umap_node_info@map@kmint@@@graph@kmint@@U?$default_delete@V?$basic_node@Umap_node_info@map@kmint@@@graph@kmint@@@std@@@std@@@std@@@std@@@std@@@util@kmint@@QEAA@V?$_Vector_iterator@V?$_Vector_val@U?$_Simple_types@V?$unique_ptr@V?$basic_node@Umap_node_info@map@kmint@@@graph@kmint@@U?$default_delete@V?$basic_node@Umap_node_info@map@kmint@@@graph@kmint@@@std@@@std@@@std@@@std@@@std@@V?$function@$$A6AAEAV?$basic_node@Umap_node_info@map@kmint@@@graph@kmint@@AEAV?$unique_ptr@V?$basic_node@Umap_node_info@map@kmint@@@graph@kmint@@U?$default_delete@V?$basic_node@Umap_node_info@map@kmint@@@graph@kmint@@@std@@@std@@@Z@4@@Z
	??0?$wrapped_iterator@Vactor@play@kmint@@V?$_Vector_iterator@V?$_Vector_val@U?$_Simple_types@V?$unique_ptr@Vactor@play@kmint@@U?$default_delete@Vactor@play@kmint@@@std@@@std@@@std@@@std@@@std@@@util@kmint@@QEAA@AEBV012@@Z
	??0?$wrapped_iterator@Vactor@play@kmint@@V?$_Vector_iterator@V?$_Vector_val@U?$_Simple_types@V?$unique_ptr@Vactor@play@kmint@@U?$default_delete@Vactor@play@kmint@@@std@@@std@@@std@@@std@@@std@@@util@kmint@@QEAA@V?$_Vector_iterator@V?$_Vector_val@U?$_Simple_types@V?$unique_ptr@Vactor@play@kmint@@U?$default_delete@Vactor@play@kmint@@@std@@@std@@@std@@@std@@@std@@V?$function@$$A6AAEAVactor@play@kmint@@AEAV?$unique_ptr@Vactor@play@kmint@@U?$default_delete@Vactor@play@kmint@@@std@@@std@@@Z@4@@Z
	??0_Bxty@?$_String_val@U?$_Simple_types@D@std@@@std@@QEAA@XZ
	??0_Clear_guard@?$_Hash@V?$_Umap_traits@DV?$vector@PEAV?$basic_node@Umap_node_info@map@kmint@@@graph@kmint@@V?$allocator@PEAV?$basic_node@Umap_node_info@map@kmint@@@graph@kmint@@@std@@@std@@V?$_Uhash_compare@DU?$hash@D@std@@U?$equal_to@D@2@@2@V?$allocator@U?$pair@$$CBDV?$vector@PEAV?$basic_node@Umap_node_info@map@kmint@@@graph@kmint@@V?$allocator@PEAV?$basic_node@Umap_node_info@map@kmint@@@graph@kmint@@@std@@@std@@@std@@@2@$0A@@std@@@std@@QEAA@QEAV12@@Z
	??0_Container_base12@std@@QEAA@XZ
	??0_Container_proxy@std@@QEAA@PEAU_Container_base12@1@@Z
	??0_Iterator_base12@std@@QEAA@AEBU01@@Z
	??0_Iterator_base12@std@@QEAA@XZ
	??0_Range_eraser@?$_Hash@V?$_Umap_traits@DV?$vector@PEAV?$basic_node@Umap_node_info@map@kmint@@@graph@kmint@@V?$allocator@PEAV?$basic_node@Umap_node_info@map@kmint@@@graph@kmint@@@std@@@std@@V?$_Uhash_compare@DU?$hash@D@std@@U?$equal_to@D@2@@2@V?$allocator@U?$pair@$$CBDV?$vector@PEAV?$basic_node@Umap_node_info@map@kmint@@@graph@kmint@@V?$allocator@PEAV?$basic_node@Umap_node_info@map@kmint@@@graph@kmint@@@std@@@std@@@std@@@2@$0A@@std@@@std@@QEAA@AEAV?$list@U?$pair@$$CBDV?$vector@PEAV?$basic_node@Umap_node_info@map@kmint@@@graph@kmint@@V?$allocator@PEAV?$basic_node@Umap_node_info@map@kmint@@@graph@kmint@@@std@@@std@@@std@@V?$allocator@U?$pair@$$CBDV?$vector@PEAV?$basic_node@Umap_node_info@map@kmint@@@graph@kmint@@V?$allocator@PEAV?$basic_node@Umap_node_info@map@kmint@@@graph@kmint@@@std@@@std@@@std@@@2@@2@QEAU?$_List_node@U?$pair@$$CBDV?$vector@PEAV?$basic_node@Umap_node_info@map@kmint@@@graph@kmint@@V?$allocator@PEAV?$basic_node@Umap_node_info@map@kmint@@@graph@kmint@@@std@@@std@@@std@@PEAX@2@@Z
	??0_Sentry_base@?$basic_istream@DU?$char_traits@D@std@@@std@@QEAA@AEAV12@@Z
	??0add_collision_iterator@play@kmint@@QEAA@AEAVactor@12@@Z
	??0add_perceived_iterator@play@kmint@@QEAA@AEAVactor@12@@Z
	??0angle@math@kmint@@AEAA@M@Z
	??0app@ui@kmint@@QEAA@$$QEAV012@@Z
	??0app@ui@kmint@@QEAA@XZ
	??0bad_alloc@std@@AEAA@QEBD@Z
	??0bad_alloc@std@@QEAA@AEBV01@@Z
	??0bad_array_new_length@std@@QEAA@AEBV01@@Z
	??0bad_array_new_length@std@@QEAA@XZ
	??0bad_cast@std@@QEAA@AEBV01@@Z
	??0bad_cast@std@@QEAA@XZ
	??0bad_variant_access@std@@QEAA@AEBV01@@Z
	??0bad_variant_access@std@@QEAA@XZ
	??0color@graphics@kmint@@QEAA@EEEE@Z
	??0event@events@ui@kmint@@QEAA@Ukey_down_event@123@@Z
	??0event@events@ui@kmint@@QEAA@Ukey_up_event@123@@Z
	??0event@events@ui@kmint@@QEAA@Uquit_event@123@@Z
	??0event@events@ui@kmint@@QEAA@XZ
	??0exception@std@@QEAA@AEBV01@@Z
	??0exception@std@@QEAA@QEBD@Z
	??0exception@std@@QEAA@QEBDH@Z
	??0exception@std@@QEAA@XZ
	??0frame@ui@kmint@@AEAA@AEAVwindow@12@@Z
	??0frame@ui@kmint@@QEAA@$$QEAV012@@Z
	??0impl@app@ui@kmint@@QEAA@XZ
	??0impl@window@ui@kmint@@QEAA@V?$basic_size@H@math@3@PEBDM@Z
	??0initialization_error@ui@kmint@@QEAA@AEBV012@@Z
	??0initialization_error@ui@kmint@@QEAA@AEBV?$basic_string@DU?$char_traits@D@std@@V?$allocator@D@2@@std@@@Z
	??0initialization_error@ui@kmint@@QEAA@PEBD@Z
	??0internal_map@map@kmint@@QEAA@Vmap_info@12@AEBV?$vector@DV?$allocator@D@std@@@std@@@Z
	??0logic_error@std@@QEAA@AEBV01@@Z
	??0logic_error@std@@QEAA@PEBD@Z
	??0map@0kmint@@QEAA@$$QEAV?$basic_graph@Umap_node_info@map@kmint@@@graph@1@V?$basic_size@H@math@1@V?$basic_string@DU?$char_traits@D@std@@V?$allocator@D@2@@std@@@Z
	??0map_header@map@kmint@@QEAA@$$QEAU012@@Z
	??0map_header@map@kmint@@QEAA@AEBU012@@Z
	??0map_header@map@kmint@@QEAA@XZ
	??0map_info@map@kmint@@QEAA@AEBV012@@Z
	??0map_info@map@kmint@@QEAA@Umap_header@12@@Z
	??0param_type@?$uniform_int@H@std@@QEAA@HH@Z
	??0param_type@?$uniform_real@M@std@@QEAA@MM@Z
	??0random_device@std@@QEAA@XZ
	??0renderer@ui@kmint@@QEAA@PEAUSDL_Window@@M@Z
	??0runtime_error@std@@QEAA@AEBV01@@Z
	??0runtime_error@std@@QEAA@AEBV?$basic_string@DU?$char_traits@D@std@@V?$allocator@D@2@@1@@Z
	??0runtime_error@std@@QEAA@PEBD@Z
	??0saturated@?$quad_tree@$03@play@kmint@@QEAA@$$QEAU0123@@Z
	??0sentry@?$basic_istream@DU?$char_traits@D@std@@@std@@QEAA@AEAV12@_N@Z
	??0surface@sdl@ui@kmint@@QEAA@AEBV?$basic_string@DU?$char_traits@D@std@@V?$allocator@D@2@@std@@@Z
	??0texture@sdl@ui@kmint@@QEAA@$$QEAV0123@@Z
	??0texture@sdl@ui@kmint@@QEAA@AEBVsurface@123@PEAUSDL_Renderer@@@Z
	??0window@ui@kmint@@AEAA@V?$basic_size@H@math@2@PEBDM@Z
	??0window@ui@kmint@@QEAA@$$QEAV012@@Z
	??1?$_Alloc_construct_ptr@V?$allocator@U?$_List_node@U?$pair@$$CBDV?$vector@PEAV?$basic_node@Umap_node_info@map@kmint@@@graph@kmint@@V?$allocator@PEAV?$basic_node@Umap_node_info@map@kmint@@@graph@kmint@@@std@@@std@@@std@@PEAX@std@@@std@@@std@@QEAA@XZ
	??1?$_Alloc_construct_ptr@V?$allocator@U?$_Tree_node@U?$pair@$$CBDUtile_info@map@kmint@@@std@@PEAX@std@@@std@@@std@@QEAA@XZ
	??1?$_Alloc_construct_ptr@V?$allocator@U?$_Tree_node@U?$pair@$$CBV?$basic_string@DU?$char_traits@D@std@@V?$allocator@D@2@@std@@Vtexture@sdl@ui@kmint@@@std@@PEAX@std@@@std@@@std@@QEAA@XZ
	??1?$_Compressed_pair@V?$allocator@D@std@@V?$_String_val@U?$_Simple_types@D@std@@@2@$00@std@@QEAA@XZ
	??1?$_Container_proxy_ptr12@V?$allocator@U_Container_proxy@std@@@std@@@std@@QEAA@XZ
	??1?$_Deleted_copy_assign@U?$_Optional_construct_base@Usaturated@?$quad_tree@$03@play@kmint@@@std@@Usaturated@?$quad_tree@$03@play@kmint@@@std@@QEAA@XZ
	??1?$_Deleted_copy_assign@U?$_Variant_destroy_layer_@Ufree@?$quad_tree@$03@play@kmint@@Usaturated@234@@std@@Ufree@?$quad_tree@$03@play@kmint@@Usaturated@456@@std@@QEAA@XZ
	??1?$_Func_class@AEAV?$basic_node@Umap_node_info@map@kmint@@@graph@kmint@@AEAV?$unique_ptr@V?$basic_node@Umap_node_info@map@kmint@@@graph@kmint@@U?$default_delete@V?$basic_node@Umap_node_info@map@kmint@@@graph@kmint@@@std@@@std@@@std@@QEAA@XZ
	??1?$_Func_class@AEAVactor@play@kmint@@AEAV?$unique_ptr@Vactor@play@kmint@@U?$default_delete@Vactor@play@kmint@@@std@@@std@@@std@@QEAA@XZ
	??1?$_Func_class@AEBVactor@play@kmint@@AEBV?$unique_ptr@Vactor@play@kmint@@U?$default_delete@Vactor@play@kmint@@@std@@@std@@@std@@QEAA@XZ
	??1?$_Hash@V?$_Umap_traits@DV?$vector@PEAV?$basic_node@Umap_node_info@map@kmint@@@graph@kmint@@V?$allocator@PEAV?$basic_node@Umap_node_info@map@kmint@@@graph@kmint@@@std@@@std@@V?$_Uhash_compare@DU?$hash@D@std@@U?$equal_to@D@2@@2@V?$allocator@U?$pair@$$CBDV?$vector@PEAV?$basic_node@Umap_node_info@map@kmint@@@graph@kmint@@V?$allocator@PEAV?$basic_node@Umap_node_info@map@kmint@@@graph@kmint@@@std@@@std@@@std@@@2@$0A@@std@@@std@@QEAA@XZ
	??1?$_Hash_vec@V?$allocator@V?$_List_unchecked_iterator@V?$_List_val@U?$_List_simple_types@U?$pair@$$CBDV?$vector@PEAV?$basic_node@Umap_node_info@map@kmint@@@graph@kmint@@V?$allocator@PEAV?$basic_node@Umap_node_info@map@kmint@@@graph@kmint@@@std@@@std@@@std@@@std@@@std@@@std@@@std@@@std@@QEAA@XZ
	??1?$_List_node_emplace_op2@V?$allocator@U?$_List_node@U?$pair@$$CBDV?$vector@PEAV?$basic_node@Umap_node_info@map@kmint@@@graph@kmint@@V?$allocator@PEAV?$basic_node@Umap_node_info@map@kmint@@@graph@kmint@@@std@@@std@@@std@@PEAX@std@@@std@@@std@@QEAA@XZ
	??1?$_Non_trivial_move@U?$_Optional_construct_base@Usaturated@?$quad_tree@$03@play@kmint@@@std@@Usaturated@?$quad_tree@$03@play@kmint@@@std@@QEAA@XZ
	??1?$_Non_trivial_move@U?$_Variant_destroy_layer_@Ufree@?$quad_tree@$03@play@kmint@@Usaturated@234@@std@@Ufree@?$quad_tree@$03@play@kmint@@Usaturated@456@@std@@QEAA@XZ
	??1?$_Non_trivial_move_assign@U?$_Optional_construct_base@Usaturated@?$quad_tree@$03@play@kmint@@@std@@Usaturated@?$quad_tree@$03@play@kmint@@@std@@QEAA@XZ
	??1?$_Non_trivial_move_assign@U?$_Variant_destroy_layer_@Ufree@?$quad_tree@$03@play@kmint@@Usaturated@234@@std@@Ufree@?$quad_tree@$03@play@kmint@@Usaturated@456@@std@@QEAA@XZ
	??1?$_Optional_construct_base@Usaturated@?$quad_tree@$03@play@kmint@@@std@@QEAA@XZ
	??1?$_Optional_destruct_base@Usaturated@?$quad_tree@$03@play@kmint@@$0A@@std@@QEAA@XZ
	??1?$_String_val@U?$_Simple_types@D@std@@@std@@QEAA@XZ
	??1?$_Tidy_guard@V?$vector@DV?$allocator@D@std@@@std@@@std@@QEAA@XZ
	??1?$_Tidy_guard@V?$vector@HV?$allocator@H@std@@@std@@@std@@QEAA@XZ
	??1?$_Tree@V?$_Tmap_traits@DUtile_info@map@kmint@@U?$less@D@std@@V?$allocator@U?$pair@$$CBDUtile_info@map@kmint@@@std@@@5@$0A@@std@@@std@@QEAA@XZ
	??1?$_Tree@V?$_Tmap_traits@V?$basic_string@DU?$char_traits@D@std@@V?$allocator@D@2@@std@@Vtexture@sdl@ui@kmint@@U?$less@V?$basic_string@DU?$char_traits@D@std@@V?$allocator@D@2@@std@@@2@V?$allocator@U?$pair@$$CBV?$basic_string@DU?$char_traits@D@std@@V?$allocator@D@2@@std@@Vtexture@sdl@ui@kmint@@@std@@@2@$0A@@std@@@std@@QEAA@XZ
	??1?$_Tree_const_iterator@V?$_Tree_val@U?$_Tree_simple_types@U?$pair@$$CBDUtile_info@map@kmint@@@std@@@std@@@std@@@std@@QEAA@XZ
	??1?$_Tree_const_iterator@V?$_Tree_val@U?$_Tree_simple_types@U?$pair@$$CBV?$basic_string@DU?$char_traits@D@std@@V?$allocator@D@2@@std@@Vtexture@sdl@ui@kmint@@@std@@@std@@@std@@@std@@QEAA@XZ
	??1?$_Tree_head_scoped_ptr@V?$allocator@U?$_Tree_node@U?$pair@$$CBDUtile_info@map@kmint@@@std@@PEAX@std@@@std@@V?$_Tree_val@U?$_Tree_simple_types@U?$pair@$$CBDUtile_info@map@kmint@@@std@@@std@@@2@@std@@QEAA@XZ
	??1?$_Tree_iterator@V?$_Tree_val@U?$_Tree_simple_types@U?$pair@$$CBDUtile_info@map@kmint@@@std@@@std@@@std@@@std@@QEAA@XZ
	??1?$_Tree_iterator@V?$_Tree_val@U?$_Tree_simple_types@U?$pair@$$CBV?$basic_string@DU?$char_traits@D@std@@V?$allocator@D@2@@std@@Vtexture@sdl@ui@kmint@@@std@@@std@@@std@@@std@@QEAA@XZ
	??1?$_Tree_temp_node@V?$allocator@U?$_Tree_node@U?$pair@$$CBDUtile_info@map@kmint@@@std@@PEAX@std@@@std@@@std@@QEAA@XZ
	??1?$_Tree_temp_node@V?$allocator@U?$_Tree_node@U?$pair@$$CBV?$basic_string@DU?$char_traits@D@std@@V?$allocator@D@2@@std@@Vtexture@sdl@ui@kmint@@@std@@PEAX@std@@@std@@@std@@QEAA@XZ
	??1?$_Tree_temp_node_alloc@V?$allocator@U?$_Tree_node@U?$pair@$$CBDUtile_info@map@kmint@@@std@@PEAX@std@@@std@@@std@@QEAA@XZ
	??1?$_Tree_temp_node_alloc@V?$allocator@U?$_Tree_node@U?$pair@$$CBV?$basic_string@DU?$char_traits@D@std@@V?$allocator@D@2@@std@@Vtexture@sdl@ui@kmint@@@std@@PEAX@std@@@std@@@std@@QEAA@XZ
	??1?$_Tree_unchecked_const_iterator@V?$_Tree_val@U?$_Tree_simple_types@U?$pair@$$CBDUtile_info@map@kmint@@@std@@@std@@@std@@U_Iterator_base12@2@@std@@QEAA@XZ
	??1?$_Tree_unchecked_const_iterator@V?$_Tree_val@U?$_Tree_simple_types@U?$pair@$$CBV?$basic_string@DU?$char_traits@D@std@@V?$allocator@D@2@@std@@Vtexture@sdl@ui@kmint@@@std@@@std@@@std@@U_Iterator_base12@2@@std@@QEAA@XZ
	??1?$_Uninitialized_backout@PEAV?$_List_unchecked_iterator@V?$_List_val@U?$_List_simple_types@U?$pair@$$CBDV?$vector@PEAV?$basic_node@Umap_node_info@map@kmint@@@graph@kmint@@V?$allocator@PEAV?$basic_node@Umap_node_info@map@kmint@@@graph@kmint@@@std@@@std@@@std@@@std@@@std@@@std@@@std@@QEAA@XZ
	??1?$_Uninitialized_backout_al@V?$allocator@H@std@@@std@@QEAA@XZ
	??1?$_Uninitialized_backout_al@V?$allocator@V?$unique_ptr@V?$basic_edge@Umap_node_info@map@kmint@@@graph@kmint@@U?$default_delete@V?$basic_edge@Umap_node_info@map@kmint@@@graph@kmint@@@std@@@std@@@std@@@std@@QEAA@XZ
	??1?$_Uninitialized_backout_al@V?$allocator@V?$unique_ptr@V?$basic_edge@Uno_node_info@graph@kmint@@@graph@kmint@@U?$default_delete@V?$basic_edge@Uno_node_info@graph@kmint@@@graph@kmint@@@std@@@std@@@std@@@std@@QEAA@XZ
	??1?$_Uninitialized_backout_al@V?$allocator@V?$unique_ptr@V?$basic_node@Umap_node_info@map@kmint@@@graph@kmint@@U?$default_delete@V?$basic_node@Umap_node_info@map@kmint@@@graph@kmint@@@std@@@std@@@std@@@std@@QEAA@XZ
	??1?$_Uninitialized_backout_al@V?$allocator@V?$unique_ptr@V?$basic_node@Uno_node_info@graph@kmint@@@graph@kmint@@U?$default_delete@V?$basic_node@Uno_node_info@graph@kmint@@@graph@kmint@@@std@@@std@@@std@@@std@@QEAA@XZ
	??1?$_Variant_base@Ufree@?$quad_tree@$03@play@kmint@@Usaturated@234@@std@@QEAA@XZ
	??1?$_Variant_destroy_layer_@Ufree@?$quad_tree@$03@play@kmint@@Usaturated@234@@std@@QEAA@XZ
	??1?$_Variant_storage_@$0A@Ufree@?$quad_tree@$03@play@kmint@@Usaturated@234@@std@@QEAA@XZ
	??1?$_Vector_const_iterator@V?$_Vector_val@U?$_Simple_types@V?$unique_ptr@V?$basic_node@Umap_node_info@map@kmint@@@graph@kmint@@U?$default_delete@V?$basic_node@Umap_node_info@map@kmint@@@graph@kmint@@@std@@@std@@@std@@@std@@@std@@QEAA@XZ
	??1?$_Vector_const_iterator@V?$_Vector_val@U?$_Simple_types@V?$unique_ptr@Vactor@play@kmint@@U?$default_delete@Vactor@play@kmint@@@std@@@std@@@std@@@std@@@std@@QEAA@XZ
	??1?$_Vector_iterator@V?$_Vector_val@U?$_Simple_types@V?$unique_ptr@V?$basic_node@Umap_node_info@map@kmint@@@graph@kmint@@U?$default_delete@V?$basic_node@Umap_node_info@map@kmint@@@graph@kmint@@@std@@@std@@@std@@@std@@@std@@QEAA@XZ
	??1?$_Vector_iterator@V?$_Vector_val@U?$_Simple_types@V?$unique_ptr@Vactor@play@kmint@@U?$default_delete@Vactor@play@kmint@@@std@@@std@@@std@@@std@@@std@@QEAA@XZ
	??1?$basic_graph@Umap_node_info@map@kmint@@@graph@kmint@@QEAA@XZ
	??1?$basic_graph@Uno_node_info@graph@kmint@@@graph@kmint@@QEAA@XZ
	??1?$basic_istringstream@DU?$char_traits@D@std@@V?$allocator@D@2@@std@@UEAA@XZ
	??1?$basic_node@Umap_node_info@map@kmint@@@graph@kmint@@QEAA@XZ
	??1?$basic_node@Uno_node_info@graph@kmint@@@graph@kmint@@QEAA@XZ
	??1?$basic_string@DU?$char_traits@D@std@@V?$allocator@D@2@@std@@QEAA@XZ
	??1?$basic_stringbuf@DU?$char_traits@D@std@@V?$allocator@D@2@@std@@UEAA@XZ
	??1?$function@$$A6AAEAV?$basic_node@Umap_node_info@map@kmint@@@graph@kmint@@AEAV?$unique_ptr@V?$basic_node@Umap_node_info@map@kmint@@@graph@kmint@@U?$default_delete@V?$basic_node@Umap_node_info@map@kmint@@@graph@kmint@@@std@@@std@@@Z@std@@QEAA@XZ
	??1?$function@$$A6AAEAVactor@play@kmint@@AEAV?$unique_ptr@Vactor@play@kmint@@U?$default_delete@Vactor@play@kmint@@@std@@@std@@@Z@std@@QEAA@XZ
	??1?$function@$$A6AAEBVactor@play@kmint@@AEBV?$unique_ptr@Vactor@play@kmint@@U?$default_delete@Vactor@play@kmint@@@std@@@std@@@Z@std@@QEAA@XZ
	??1?$list@U?$pair@$$CBDV?$vector@PEAV?$basic_node@Umap_node_info@map@kmint@@@graph@kmint@@V?$allocator@PEAV?$basic_node@Umap_node_info@map@kmint@@@graph@kmint@@@std@@@std@@@std@@V?$allocator@U?$pair@$$CBDV?$vector@PEAV?$basic_node@Umap_node_info@map@kmint@@@graph@kmint@@V?$allocator@PEAV?$basic_node@Umap_node_info@map@kmint@@@graph@kmint@@@std@@@std@@@std@@@2@@std@@QEAA@XZ
	??1?$map@DUtile_info@0kmint@@U?$less@D@std@@V?$allocator@U?$pair@$$CBDUtile_info@map@kmint@@@std@@@4@@std@@QEAA@XZ
	??1?$map@V?$basic_string@DU?$char_traits@D@std@@V?$allocator@D@2@@std@@Vtexture@sdl@ui@kmint@@U?$less@V?$basic_string@DU?$char_traits@D@std@@V?$allocator@D@2@@std@@@2@V?$allocator@U?$pair@$$CBV?$basic_string@DU?$char_traits@D@std@@V?$allocator@D@2@@std@@Vtexture@sdl@ui@kmint@@@std@@@2@@std@@QEAA@XZ
	??1?$optional@Usaturated@?$quad_tree@$03@play@kmint@@@std@@QEAA@XZ
	??1?$pair@$$CBDV?$vector@PEAV?$basic_node@Umap_node_info@map@kmint@@@graph@kmint@@V?$allocator@PEAV?$basic_node@Umap_node_info@map@kmint@@@graph@kmint@@@std@@@std@@@std@@QEAA@XZ
	??1?$pair@$$CBV?$basic_string@DU?$char_traits@D@std@@V?$allocator@D@2@@std@@Vtexture@sdl@ui@kmint@@@std@@QEAA@XZ
	??1?$pair@V?$_Tree_iterator@V?$_Tree_val@U?$_Tree_simple_types@U?$pair@$$CBDUtile_info@map@kmint@@@std@@@std@@@std@@@std@@_N@std@@QEAA@XZ
	??1?$pair@V?$_Tree_iterator@V?$_Tree_val@U?$_Tree_simple_types@U?$pair@$$CBV?$basic_string@DU?$char_traits@D@std@@V?$allocator@D@2@@std@@Vtexture@sdl@ui@kmint@@@std@@@std@@@std@@@std@@_N@std@@QEAA@XZ
	??1?$pair@V?$basic_string@DU?$char_traits@D@std@@V?$allocator@D@2@@std@@Vtexture@sdl@ui@kmint@@@std@@QEAA@XZ
	??1?$quad_tree@$03@play@kmint@@QEAA@XZ
	??1?$unique_ptr@USDL_Renderer@@V?$destroyer@USDL_Renderer@@@sdl@ui@kmint@@@std@@QEAA@XZ
	??1?$unique_ptr@USDL_Surface@@V?$destroyer@USDL_Surface@@@sdl@ui@kmint@@@std@@QEAA@XZ
	??1?$unique_ptr@USDL_Texture@@V?$destroyer@USDL_Texture@@@sdl@ui@kmint@@@std@@QEAA@XZ
	??1?$unique_ptr@USDL_Window@@V?$destroyer@USDL_Window@@@sdl@ui@kmint@@@std@@QEAA@XZ
	??1?$unique_ptr@Uimpl@frame@ui@kmint@@U?$default_delete@Uimpl@frame@ui@kmint@@@std@@@std@@QEAA@XZ
	??1?$unique_ptr@V?$basic_edge@Umap_node_info@map@kmint@@@graph@kmint@@U?$default_delete@V?$basic_edge@Umap_node_info@map@kmint@@@graph@kmint@@@std@@@std@@QEAA@XZ
	??1?$unique_ptr@V?$basic_edge@Uno_node_info@graph@kmint@@@graph@kmint@@U?$default_delete@V?$basic_edge@Uno_node_info@graph@kmint@@@graph@kmint@@@std@@@std@@QEAA@XZ
	??1?$unique_ptr@V?$basic_node@Umap_node_info@map@kmint@@@graph@kmint@@U?$default_delete@V?$basic_node@Umap_node_info@map@kmint@@@graph@kmint@@@std@@@std@@QEAA@XZ
	??1?$unique_ptr@V?$basic_node@Uno_node_info@graph@kmint@@@graph@kmint@@U?$default_delete@V?$basic_node@Uno_node_info@graph@kmint@@@graph@kmint@@@std@@@std@@QEAA@XZ
	??1?$unique_ptr@V?$quad_tree@$03@play@kmint@@U?$default_delete@V?$quad_tree@$03@play@kmint@@@std@@@std@@QEAA@XZ
	??1?$unique_ptr@V_Facet_base@std@@U?$default_delete@V_Facet_base@std@@@2@@std@@QEAA@XZ
	??1?$unique_ptr@Vactor@play@kmint@@U?$default_delete@Vactor@play@kmint@@@std@@@std@@QEAA@XZ
	??1?$unique_ptr@Vimpl@app@ui@kmint@@U?$default_delete@Vimpl@app@ui@kmint@@@std@@@std@@QEAA@XZ
	??1?$unique_ptr@Vimpl@window@ui@kmint@@U?$default_delete@Vimpl@window@ui@kmint@@@std@@@std@@QEAA@XZ
	??1?$unordered_map@DV?$vector@PEAV?$basic_node@Umap_node_info@map@kmint@@@graph@kmint@@V?$allocator@PEAV?$basic_node@Umap_node_info@map@kmint@@@graph@kmint@@@std@@@std@@U?$hash@D@2@U?$equal_to@D@2@V?$allocator@U?$pair@$$CBDV?$vector@PEAV?$basic_node@Umap_node_info@map@kmint@@@graph@kmint@@V?$allocator@PEAV?$basic_node@Umap_node_info@map@kmint@@@graph@kmint@@@std@@@std@@@std@@@2@@std@@QEAA@XZ
	??1?$variant@Ufree@?$quad_tree@$03@play@kmint@@Usaturated@234@@std@@QEAA@XZ
	??1?$vector@DV?$allocator@D@std@@@std@@QEAA@XZ
	??1?$vector@HV?$allocator@H@std@@@std@@QEAA@XZ
	??1?$vector@PEAV?$basic_node@Umap_node_info@map@kmint@@@graph@kmint@@V?$allocator@PEAV?$basic_node@Umap_node_info@map@kmint@@@graph@kmint@@@std@@@std@@QEAA@XZ
	??1?$vector@V?$unique_ptr@V?$basic_edge@Umap_node_info@map@kmint@@@graph@kmint@@U?$default_delete@V?$basic_edge@Umap_node_info@map@kmint@@@graph@kmint@@@std@@@std@@V?$allocator@V?$unique_ptr@V?$basic_edge@Umap_node_info@map@kmint@@@graph@kmint@@U?$default_delete@V?$basic_edge@Umap_node_info@map@kmint@@@graph@kmint@@@std@@@std@@@2@@std@@QEAA@XZ
	??1?$vector@V?$unique_ptr@V?$basic_edge@Uno_node_info@graph@kmint@@@graph@kmint@@U?$default_delete@V?$basic_edge@Uno_node_info@graph@kmint@@@graph@kmint@@@std@@@std@@V?$allocator@V?$unique_ptr@V?$basic_edge@Uno_node_info@graph@kmint@@@graph@kmint@@U?$default_delete@V?$basic_edge@Uno_node_info@graph@kmint@@@graph@kmint@@@std@@@std@@@2@@std@@QEAA@XZ
	??1?$vector@V?$unique_ptr@V?$basic_node@Umap_node_info@map@kmint@@@graph@kmint@@U?$default_delete@V?$basic_node@Umap_node_info@map@kmint@@@graph@kmint@@@std@@@std@@V?$allocator@V?$unique_ptr@V?$basic_node@Umap_node_info@map@kmint@@@graph@kmint@@U?$default_delete@V?$basic_node@Umap_node_info@map@kmint@@@graph@kmint@@@std@@@std@@@2@@std@@QEAA@XZ
	??1?$vector@V?$unique_ptr@V?$basic_node@Uno_node_info@graph@kmint@@@graph@kmint@@U?$default_delete@V?$basic_node@Uno_node_info@graph@kmint@@@graph@kmint@@@std@@@std@@V?$allocator@V?$unique_ptr@V?$basic_node@Uno_node_info@graph@kmint@@@graph@kmint@@U?$default_delete@V?$basic_node@Uno_node_info@graph@kmint@@@graph@kmint@@@std@@@std@@@2@@std@@QEAA@XZ
	??1?$wrapped_iterator@V?$basic_node@Umap_node_info@map@kmint@@@graph@kmint@@V?$_Vector_iterator@V?$_Vector_val@U?$_Simple_types@V?$unique_ptr@V?$basic_node@Umap_node_info@map@kmint@@@graph@kmint@@U?$default_delete@V?$basic_node@Umap_node_info@map@kmint@@@graph@kmint@@@std@@@std@@@std@@@std@@@std@@@util@kmint@@QEAA@XZ
	??1?$wrapped_iterator@Vactor@play@kmint@@V?$_Vector_iterator@V?$_Vector_val@U?$_Simple_types@V?$unique_ptr@Vactor@play@kmint@@U?$default_delete@Vactor@play@kmint@@@std@@@std@@@std@@@std@@@std@@@util@kmint@@QEAA@XZ
	??1_Bxty@?$_String_val@U?$_Simple_types@D@std@@@std@@QEAA@XZ
	??1_Clear_guard@?$_Hash@V?$_Umap_traits@DV?$vector@PEAV?$basic_node@Umap_node_info@map@kmint@@@graph@kmint@@V?$allocator@PEAV?$basic_node@Umap_node_info@map@kmint@@@graph@kmint@@@std@@@std@@V?$_Uhash_compare@DU?$hash@D@std@@U?$equal_to@D@2@@2@V?$allocator@U?$pair@$$CBDV?$vector@PEAV?$basic_node@Umap_node_info@map@kmint@@@graph@kmint@@V?$allocator@PEAV?$basic_node@Umap_node_info@map@kmint@@@graph@kmint@@@std@@@std@@@std@@@2@$0A@@std@@@std@@QEAA@XZ
	??1_Iterator_base12@std@@QEAA@XZ
	??1_Range_eraser@?$_Hash@V?$_Umap_traits@DV?$vector@PEAV?$basic_node@Umap_node_info@map@kmint@@@graph@kmint@@V?$allocator@PEAV?$basic_node@Umap_node_info@map@kmint@@@graph@kmint@@@std@@@std@@V?$_Uhash_compare@DU?$hash@D@std@@U?$equal_to@D@2@@2@V?$allocator@U?$pair@$$CBDV?$vector@PEAV?$basic_node@Umap_node_info@map@kmint@@@graph@kmint@@V?$allocator@PEAV?$basic_node@Umap_node_info@map@kmint@@@graph@kmint@@@std@@@std@@@std@@@2@$0A@@std@@@std@@QEAA@XZ
	??1_Sentry_base@?$basic_istream@DU?$char_traits@D@std@@@std@@QEAA@XZ
	??1app@ui@kmint@@QEAA@XZ
	??1bad_alloc@std@@UEAA@XZ
	??1bad_array_new_length@std@@UEAA@XZ
	??1bad_cast@std@@UEAA@XZ
	??1bad_variant_access@std@@UEAA@XZ
	??1exception@std@@UEAA@XZ
	??1frame@ui@kmint@@QEAA@XZ
	??1impl@app@ui@kmint@@QEAA@XZ
	??1impl@window@ui@kmint@@QEAA@XZ
	??1initialization_error@ui@kmint@@UEAA@XZ
	??1internal_map@map@kmint@@QEAA@XZ
	??1locale@std@@QEAA@XZ
	??1logic_error@std@@UEAA@XZ
	??1map_header@map@kmint@@QEAA@XZ
	??1map_info@map@kmint@@QEAA@XZ
	??1renderer@ui@kmint@@QEAA@XZ
	??1runtime_error@std@@UEAA@XZ
	??1saturated@?$quad_tree@$03@play@kmint@@QEAA@XZ
	??1sentry@?$basic_istream@DU?$char_traits@D@std@@@std@@QEAA@XZ
	??1surface@sdl@ui@kmint@@QEAA@XZ
	??1texture@sdl@ui@kmint@@QEAA@XZ
	??1window@ui@kmint@@QEAA@XZ
	??2@YAPEAX_KPEAX@Z
	??4?$_Vector_const_iterator@V?$_Vector_val@U?$_Simple_types@V?$unique_ptr@Vactor@play@kmint@@U?$default_delete@Vactor@play@kmint@@@std@@@std@@@std@@@std@@@std@@QEAAAEAV01@$$QEAV01@@Z
	??4?$_Vector_iterator@V?$_Vector_val@U?$_Simple_types@V?$unique_ptr@Vactor@play@kmint@@U?$default_delete@Vactor@play@kmint@@@std@@@std@@@std@@@std@@@std@@QEAAAEAV01@$$QEAV01@@Z
	??4?$back_insert_iterator@V?$vector@DV?$allocator@D@std@@@std@@@std@@QEAAAEAV01@AEBD@Z
	??4?$basic_string@DU?$char_traits@D@std@@V?$allocator@D@2@@std@@QEAAAEAV01@$$QEAV01@@Z
	??4_Iterator_base12@std@@QEAAAEAU01@AEBU01@@Z
	??4add_collision_iterator@play@kmint@@QEAAAEAV012@AEAVactor@12@@Z
	??4add_collision_iterator@play@kmint@@QEAAAEAV012@PEAVactor@12@@Z
	??4add_perceived_iterator@play@kmint@@QEAAAEAV012@AEAVactor@12@@Z
	??4add_perceived_iterator@play@kmint@@QEAAAEAV012@PEAVactor@12@@Z
	??4app@ui@kmint@@QEAAAEAV012@$$QEAV012@@Z
	??4frame@ui@kmint@@QEAAAEAV012@$$QEAV012@@Z
	??4saturated@?$quad_tree@$03@play@kmint@@QEAAAEAU0123@$$QEAU0123@@Z
	??4window@ui@kmint@@QEAAAEAV012@$$QEAV012@@Z
	??5graph@kmint@@YAAEAV?$basic_istream@DU?$char_traits@D@std@@@std@@AEAV23@AEAUno_node_info@01@@Z
	??5map@kmint@@YAAEAV?$basic_istream@DU?$char_traits@D@std@@@std@@AEAV23@AEAUmap_header@01@@Z
	??5map@kmint@@YAAEAV?$basic_istream@DU?$char_traits@D@std@@@std@@AEAV23@AEAUtile_info@01@@Z
	??6graph@kmint@@YAAEAV?$basic_ostream@DU?$char_traits@D@std@@@std@@AEAV23@Uno_node_info@01@@Z
	??8?$_List_unchecked_const_iterator@V?$_List_val@U?$_List_simple_types@U?$pair@$$CBDV?$vector@PEAV?$basic_node@Umap_node_info@map@kmint@@@graph@kmint@@V?$allocator@PEAV?$basic_node@Umap_node_info@map@kmint@@@graph@kmint@@@std@@@std@@@std@@@std@@@std@@U_Iterator_base0@2@@std@@QEBA_NAEBV01@@Z
	??8?$_Tree_const_iterator@V?$_Tree_val@U?$_Tree_simple_types@U?$pair@$$CBV?$basic_string@DU?$char_traits@D@std@@V?$allocator@D@2@@std@@Vtexture@sdl@ui@kmint@@@std@@@std@@@std@@@std@@QEBA_NAEBV01@@Z
	??8?$_Vector_const_iterator@V?$_Vector_val@U?$_Simple_types@V?$unique_ptr@V?$basic_node@Umap_node_info@map@kmint@@@graph@kmint@@U?$default_delete@V?$basic_node@Umap_node_info@map@kmint@@@graph@kmint@@@std@@@std@@@std@@@std@@@std@@QEBA_NAEBV01@@Z
	??8?$_Vector_const_iterator@V?$_Vector_val@U?$_Simple_types@V?$unique_ptr@Vactor@play@kmint@@U?$default_delete@Vactor@play@kmint@@@std@@@std@@@std@@@std@@@std@@QEBA_NAEBV01@@Z
	??9?$_List_unchecked_const_iterator@V?$_List_val@U?$_List_simple_types@U?$pair@$$CBDV?$vector@PEAV?$basic_node@Umap_node_info@map@kmint@@@graph@kmint@@V?$allocator@PEAV?$basic_node@Umap_node_info@map@kmint@@@graph@kmint@@@std@@@std@@@std@@@std@@@std@@U_Iterator_base0@2@@std@@QEBA_NAEBV01@@Z
	??9?$_Tree_const_iterator@V?$_Tree_val@U?$_Tree_simple_types@U?$pair@$$CBV?$basic_string@DU?$char_traits@D@std@@V?$allocator@D@2@@std@@Vtexture@sdl@ui@kmint@@@std@@@std@@@std@@@std@@QEBA_NAEBV01@@Z
	??9?$_Vector_const_iterator@V?$_Vector_val@U?$_Simple_types@V?$unique_ptr@V?$basic_node@Umap_node_info@map@kmint@@@graph@kmint@@U?$default_delete@V?$basic_node@Umap_node_info@map@kmint@@@graph@kmint@@@std@@@std@@@std@@@std@@@std@@QEBA_NAEBV01@@Z
	??9?$_Vector_const_iterator@V?$_Vector_val@U?$_Simple_types@V?$unique_ptr@Vactor@play@kmint@@U?$default_delete@Vactor@play@kmint@@@std@@@std@@@std@@@std@@@std@@QEBA_NAEBV01@@Z
	??9?$wrapped_iterator@V?$basic_node@Umap_node_info@map@kmint@@@graph@kmint@@V?$_Vector_iterator@V?$_Vector_val@U?$_Simple_types@V?$unique_ptr@V?$basic_node@Umap_node_info@map@kmint@@@graph@kmint@@U?$default_delete@V?$basic_node@Umap_node_info@map@kmint@@@graph@kmint@@@std@@@std@@@std@@@std@@@std@@@util@kmint@@QEBA_NV012@@Z
	??9?$wrapped_iterator@Vactor@play@kmint@@V?$_Vector_iterator@V?$_Vector_val@U?$_Simple_types@V?$unique_ptr@Vactor@play@kmint@@U?$default_delete@Vactor@play@kmint@@@std@@@std@@@std@@@std@@@std@@@util@kmint@@QEBA_NV012@@Z
	??A?$array@PEAVactor@play@kmint@@$03@std@@QEBAAEBQEAVactor@play@kmint@@_K@Z
	??A?$array@V?$basic_rectangle@M@math@kmint@@$03@std@@QEAAAEAV?$basic_rectangle@M@math@kmint@@_K@Z
	??A?$basic_graph@Umap_node_info@map@kmint@@@graph@kmint@@QEAAAEAV?$basic_node@Umap_node_info@map@kmint@@@12@_K@Z
	??A?$basic_graph@Uno_node_info@graph@kmint@@@graph@kmint@@QEAAAEAV?$basic_node@Uno_node_info@graph@kmint@@@12@_K@Z
	??A?$unordered_map@DV?$vector@PEAV?$basic_node@Umap_node_info@map@kmint@@@graph@kmint@@V?$allocator@PEAV?$basic_node@Umap_node_info@map@kmint@@@graph@kmint@@@std@@@std@@U?$hash@D@2@U?$equal_to@D@2@V?$allocator@U?$pair@$$CBDV?$vector@PEAV?$basic_node@Umap_node_info@map@kmint@@@graph@kmint@@V?$allocator@PEAV?$basic_node@Umap_node_info@map@kmint@@@graph@kmint@@@std@@@std@@@std@@@2@@std@@QEAAAEAV?$vector@PEAV?$basic_node@Umap_node_info@map@kmint@@@graph@kmint@@V?$allocator@PEAV?$basic_node@Umap_node_info@map@kmint@@@graph@kmint@@@std@@@1@AEBD@Z
	??A?$vector@DV?$allocator@D@std@@@std@@QEAAAEAD_K@Z
	??A?$vector@HV?$allocator@H@std@@@std@@QEAAAEAH_K@Z
	??A?$vector@V?$unique_ptr@V?$basic_node@Umap_node_info@map@kmint@@@graph@kmint@@U?$default_delete@V?$basic_node@Umap_node_info@map@kmint@@@graph@kmint@@@std@@@std@@V?$allocator@V?$unique_ptr@V?$basic_node@Umap_node_info@map@kmint@@@graph@kmint@@U?$default_delete@V?$basic_node@Umap_node_info@map@kmint@@@graph@kmint@@@std@@@std@@@2@@std@@QEAAAEAV?$unique_ptr@V?$basic_node@Umap_node_info@map@kmint@@@graph@kmint@@U?$default_delete@V?$basic_node@Umap_node_info@map@kmint@@@graph@kmint@@@std@@@1@_K@Z
	??A?$vector@V?$unique_ptr@V?$basic_node@Uno_node_info@graph@kmint@@@graph@kmint@@U?$default_delete@V?$basic_node@Uno_node_info@graph@kmint@@@graph@kmint@@@std@@@std@@V?$allocator@V?$unique_ptr@V?$basic_node@Uno_node_info@graph@kmint@@@graph@kmint@@U?$default_delete@V?$basic_node@Uno_node_info@graph@kmint@@@graph@kmint@@@std@@@std@@@2@@std@@QEAAAEAV?$unique_ptr@V?$basic_node@Uno_node_info@graph@kmint@@@graph@kmint@@U?$default_delete@V?$basic_node@Uno_node_info@graph@kmint@@@graph@kmint@@@std@@@1@_K@Z
	??B?$fpos@U_Mbstatet@@@std@@QEBA_JXZ
	??B?$optional@Usaturated@?$quad_tree@$03@play@kmint@@@std@@QEBA_NXZ
	??Bsentry@?$basic_istream@DU?$char_traits@D@std@@@std@@QEBA_NXZ
	??Bsurface@sdl@ui@kmint@@QEBAPEAUSDL_Surface@@XZ
	??C?$_Tree_iterator@V?$_Tree_val@U?$_Tree_simple_types@U?$pair@$$CBV?$basic_string@DU?$char_traits@D@std@@V?$allocator@D@2@@std@@Vtexture@sdl@ui@kmint@@@std@@@std@@@std@@@std@@QEBAPEAU?$pair@$$CBV?$basic_string@DU?$char_traits@D@std@@V?$allocator@D@2@@std@@Vtexture@sdl@ui@kmint@@@1@XZ
	??C?$unique_ptr@USDL_Surface@@V?$destroyer@USDL_Surface@@@sdl@ui@kmint@@@std@@QEBAPEAUSDL_Surface@@XZ
	??C?$unique_ptr@Uimpl@frame@ui@kmint@@U?$default_delete@Uimpl@frame@ui@kmint@@@std@@@std@@QEBAPEAUimpl@frame@ui@kmint@@XZ
	??C?$unique_ptr@V?$quad_tree@$03@play@kmint@@U?$default_delete@V?$quad_tree@$03@play@kmint@@@std@@@std@@QEBAPEAV?$quad_tree@$03@play@kmint@@XZ
	??C?$unique_ptr@Vactor@play@kmint@@U?$default_delete@Vactor@play@kmint@@@std@@@std@@QEBAPEAVactor@play@kmint@@XZ
	??C?$unique_ptr@Vimpl@window@ui@kmint@@U?$default_delete@Vimpl@window@ui@kmint@@@std@@@std@@QEBAPEAVimpl@window@ui@kmint@@XZ
	??C?$wrapped_iterator@Vactor@play@kmint@@V?$_Vector_iterator@V?$_Vector_val@U?$_Simple_types@V?$unique_ptr@Vactor@play@kmint@@U?$default_delete@Vactor@play@kmint@@@std@@@std@@@std@@@std@@@std@@@util@kmint@@QEAAPEAVactor@play@2@XZ
	??D?$_List_unchecked_const_iterator@V?$_List_val@U?$_List_simple_types@U?$pair@$$CBDV?$vector@PEAV?$basic_node@Umap_node_info@map@kmint@@@graph@kmint@@V?$allocator@PEAV?$basic_node@Umap_node_info@map@kmint@@@graph@kmint@@@std@@@std@@@std@@@std@@@std@@U_Iterator_base0@2@@std@@QEBAAEBU?$pair@$$CBDV?$vector@PEAV?$basic_node@Umap_node_info@map@kmint@@@graph@kmint@@V?$allocator@PEAV?$basic_node@Umap_node_info@map@kmint@@@graph@kmint@@@std@@@std@@@1@XZ
	??D?$_List_unchecked_iterator@V?$_List_val@U?$_List_simple_types@U?$pair@$$CBDV?$vector@PEAV?$basic_node@Umap_node_info@map@kmint@@@graph@kmint@@V?$allocator@PEAV?$basic_node@Umap_node_info@map@kmint@@@graph@kmint@@@std@@@std@@@std@@@std@@@std@@@std@@QEBAAEAU?$pair@$$CBDV?$vector@PEAV?$basic_node@Umap_node_info@map@kmint@@@graph@kmint@@V?$allocator@PEAV?$basic_node@Umap_node_info@map@kmint@@@graph@kmint@@@std@@@std@@@1@XZ
	??D?$_Tree_const_iterator@V?$_Tree_val@U?$_Tree_simple_types@U?$pair@$$CBV?$basic_string@DU?$char_traits@D@std@@V?$allocator@D@2@@std@@Vtexture@sdl@ui@kmint@@@std@@@std@@@std@@@std@@QEBAAEBU?$pair@$$CBV?$basic_string@DU?$char_traits@D@std@@V?$allocator@D@2@@std@@Vtexture@sdl@ui@kmint@@@1@XZ
	??D?$_Tree_iterator@V?$_Tree_val@U?$_Tree_simple_types@U?$pair@$$CBV?$basic_string@DU?$char_traits@D@std@@V?$allocator@D@2@@std@@Vtexture@sdl@ui@kmint@@@std@@@std@@@std@@@std@@QEBAAEAU?$pair@$$CBV?$basic_string@DU?$char_traits@D@std@@V?$allocator@D@2@@std@@Vtexture@sdl@ui@kmint@@@1@XZ
	??D?$_Vector_const_iterator@V?$_Vector_val@U?$_Simple_types@V?$unique_ptr@V?$basic_node@Umap_node_info@map@kmint@@@graph@kmint@@U?$default_delete@V?$basic_node@Umap_node_info@map@kmint@@@graph@kmint@@@std@@@std@@@std@@@std@@@std@@QEBAAEBV?$unique_ptr@V?$basic_node@Umap_node_info@map@kmint@@@graph@kmint@@U?$default_delete@V?$basic_node@Umap_node_info@map@kmint@@@graph@kmint@@@std@@@1@XZ
	??D?$_Vector_const_iterator@V?$_Vector_val@U?$_Simple_types@V?$unique_ptr@Vactor@play@kmint@@U?$default_delete@Vactor@play@kmint@@@std@@@std@@@std@@@std@@@std@@QEBAAEBV?$unique_ptr@Vactor@play@kmint@@U?$default_delete@Vactor@play@kmint@@@std@@@1@XZ
	??D?$_Vector_iterator@V?$_Vector_val@U?$_Simple_types@V?$unique_ptr@V?$basic_node@Umap_node_info@map@kmint@@@graph@kmint@@U?$default_delete@V?$basic_node@Umap_node_info@map@kmint@@@graph@kmint@@@std@@@std@@@std@@@std@@@std@@QEBAAEAV?$unique_ptr@V?$basic_node@Umap_node_info@map@kmint@@@graph@kmint@@U?$default_delete@V?$basic_node@Umap_node_info@map@kmint@@@graph@kmint@@@std@@@1@XZ
	??D?$_Vector_iterator@V?$_Vector_val@U?$_Simple_types@V?$unique_ptr@Vactor@play@kmint@@U?$default_delete@Vactor@play@kmint@@@std@@@std@@@std@@@std@@@std@@QEBAAEAV?$unique_ptr@Vactor@play@kmint@@U?$default_delete@Vactor@play@kmint@@@std@@@1@XZ
	??D?$back_insert_iterator@V?$vector@DV?$allocator@D@std@@@std@@@std@@QEAAAEAV01@XZ
	??D?$istream_iterator@DDU?$char_traits@D@std@@_J@std@@QEBAAEBDXZ
	??D?$optional@Usaturated@?$quad_tree@$03@play@kmint@@@std@@QEGAAAEAUsaturated@?$quad_tree@$03@play@kmint@@XZ
	??D?$unique_ptr@V?$basic_node@Umap_node_info@map@kmint@@@graph@kmint@@U?$default_delete@V?$basic_node@Umap_node_info@map@kmint@@@graph@kmint@@@std@@@std@@QEBAAEAV?$basic_node@Umap_node_info@map@kmint@@@graph@kmint@@XZ
	??D?$unique_ptr@V?$basic_node@Uno_node_info@graph@kmint@@@graph@kmint@@U?$default_delete@V?$basic_node@Uno_node_info@graph@kmint@@@graph@kmint@@@std@@@std@@QEBAAEAV?$basic_node@Uno_node_info@graph@kmint@@@graph@kmint@@XZ
	??D?$unique_ptr@Vactor@play@kmint@@U?$default_delete@Vactor@play@kmint@@@std@@@std@@QEBAAEAVactor@play@kmint@@XZ
	??D?$wrapped_iterator@V?$basic_node@Umap_node_info@map@kmint@@@graph@kmint@@V?$_Vector_iterator@V?$_Vector_val@U?$_Simple_types@V?$unique_ptr@V?$basic_node@Umap_node_info@map@kmint@@@graph@kmint@@U?$default_delete@V?$basic_node@Umap_node_info@map@kmint@@@graph@kmint@@@std@@@std@@@std@@@std@@@std@@@util@kmint@@QEAAAEAV?$basic_node@Umap_node_info@map@kmint@@@graph@2@XZ
	??D?$wrapped_iterator@Vactor@play@kmint@@V?$_Vector_iterator@V?$_Vector_val@U?$_Simple_types@V?$unique_ptr@Vactor@play@kmint@@U?$default_delete@Vactor@play@kmint@@@std@@@std@@@std@@@std@@@std@@@util@kmint@@QEAAAEAVactor@play@2@XZ
	??Dadd_collision_iterator@play@kmint@@QEAAAEAV012@XZ
	??Dadd_perceived_iterator@play@kmint@@QEAAAEAV012@XZ
	??E?$_List_unchecked_const_iterator@V?$_List_val@U?$_List_simple_types@U?$pair@$$CBDV?$vector@PEAV?$basic_node@Umap_node_info@map@kmint@@@graph@kmint@@V?$allocator@PEAV?$basic_node@Umap_node_info@map@kmint@@@graph@kmint@@@std@@@std@@@std@@@std@@@std@@U_Iterator_base0@2@@std@@QEAAAEAV01@XZ
	??E?$_List_unchecked_iterator@V?$_List_val@U?$_List_simple_types@U?$pair@$$CBDV?$vector@PEAV?$basic_node@Umap_node_info@map@kmint@@@graph@kmint@@V?$allocator@PEAV?$basic_node@Umap_node_info@map@kmint@@@graph@kmint@@@std@@@std@@@std@@@std@@@std@@@std@@QEAAAEAV01@XZ
	??E?$_Vector_const_iterator@V?$_Vector_val@U?$_Simple_types@V?$unique_ptr@V?$basic_node@Umap_node_info@map@kmint@@@graph@kmint@@U?$default_delete@V?$basic_node@Umap_node_info@map@kmint@@@graph@kmint@@@std@@@std@@@std@@@std@@@std@@QEAAAEAV01@XZ
	??E?$_Vector_const_iterator@V?$_Vector_val@U?$_Simple_types@V?$unique_ptr@Vactor@play@kmint@@U?$default_delete@Vactor@play@kmint@@@std@@@std@@@std@@@std@@@std@@QEAAAEAV01@XZ
	??E?$_Vector_iterator@V?$_Vector_val@U?$_Simple_types@V?$unique_ptr@V?$basic_node@Umap_node_info@map@kmint@@@graph@kmint@@U?$default_delete@V?$basic_node@Umap_node_info@map@kmint@@@graph@kmint@@@std@@@std@@@std@@@std@@@std@@QEAAAEAV01@XZ
	??E?$_Vector_iterator@V?$_Vector_val@U?$_Simple_types@V?$unique_ptr@Vactor@play@kmint@@U?$default_delete@Vactor@play@kmint@@@std@@@std@@@std@@@std@@@std@@QEAAAEAV01@XZ
	??E?$back_insert_iterator@V?$vector@DV?$allocator@D@std@@@std@@@std@@QEAAAEAV01@XZ
	??E?$istream_iterator@DDU?$char_traits@D@std@@_J@std@@QEAAAEAV01@XZ
	??E?$wrapped_iterator@V?$basic_node@Umap_node_info@map@kmint@@@graph@kmint@@V?$_Vector_iterator@V?$_Vector_val@U?$_Simple_types@V?$unique_ptr@V?$basic_node@Umap_node_info@map@kmint@@@graph@kmint@@U?$default_delete@V?$basic_node@Umap_node_info@map@kmint@@@graph@kmint@@@std@@@std@@@std@@@std@@@std@@@util@kmint@@QEAAAEAV012@XZ
	??E?$wrapped_iterator@Vactor@play@kmint@@V?$_Vector_iterator@V?$_Vector_val@U?$_Simple_types@V?$unique_ptr@Vactor@play@kmint@@U?$default_delete@Vactor@play@kmint@@@std@@@std@@@std@@@std@@@std@@@util@kmint@@QEAAAEAV012@XZ
	??Eadd_collision_iterator@play@kmint@@QEAAAEAV012@H@Z
	??Eadd_perceived_iterator@play@kmint@@QEAAAEAV012@H@Z
	??F?$_List_unchecked_const_iterator@V?$_List_val@U?$_List_simple_types@U?$pair@$$CBDV?$vector@PEAV?$basic_node@Umap_node_info@map@kmint@@@graph@kmint@@V?$allocator@PEAV?$basic_node@Umap_node_info@map@kmint@@@graph@kmint@@@std@@@std@@@std@@@std@@@std@@U_Iterator_base0@2@@std@@QEAAAEAV01@XZ
	??R<lambda_1523b8ddba63e718f43ea97c9e0b26ab>@@QEBAXAEBUfree@?$quad_tree@$03@play@kmint@@@Z
	??R<lambda_29327d9d9fb0be4adcefd7095d0faa01>@@QEBAXAEBUsaturated@?$quad_tree@$03@play@kmint@@@Z
	??R<lambda_319d5e083f45f90dcdce5dce53cbb275>@@QEBAXQEADQEBD_KD@Z
	??R<lambda_5b573ddf20ab6b8c519541572a849e86>@@QEBAXAEBUsaturated@?$quad_tree@$03@play@kmint@@@Z
	??R<lambda_5e603f1a4bce7b3b42fb0d0c3f008067>@@QEBAXAEBUfree@?$quad_tree@$03@play@kmint@@@Z
	??R<lambda_65e615be2a453ca0576c979606f46740>@@QEBAXQEADQEBD_K12@Z
	??R<lambda_66f57f934f28d61049862f64df852ff0>@@QEBAXQEAD_KQEBD@Z
	??R<lambda_ad2beb13dbb0cf610997dab0ec383f8b>@@QEBA?AV?$optional@Usaturated@?$quad_tree@$03@play@kmint@@@std@@AEAUfree@?$quad_tree@$03@play@kmint@@@Z
	??R<lambda_c23fc6e423333c95ae20a61e475ddf2a>@@QEBA?AV?$optional@Usaturated@?$quad_tree@$03@play@kmint@@@std@@AEAUsaturated@?$quad_tree@$03@play@kmint@@@Z
	??R?$_Conditionally_enabled_hash@D$00@std@@QEBA_KAEBD@Z
	??R?$_Func_class@AEAV?$basic_node@Umap_node_info@map@kmint@@@graph@kmint@@AEAV?$unique_ptr@V?$basic_node@Umap_node_info@map@kmint@@@graph@kmint@@U?$default_delete@V?$basic_node@Umap_node_info@map@kmint@@@graph@kmint@@@std@@@std@@@std@@QEBAAEAV?$basic_node@Umap_node_info@map@kmint@@@graph@kmint@@AEAV?$unique_ptr@V?$basic_node@Umap_node_info@map@kmint@@@graph@kmint@@U?$default_delete@V?$basic_node@Umap_node_info@map@kmint@@@graph@kmint@@@std@@@1@@Z
	??R?$_Func_class@AEAVactor@play@kmint@@AEAV?$unique_ptr@Vactor@play@kmint@@U?$default_delete@Vactor@play@kmint@@@std@@@std@@@std@@QEBAAEAVactor@play@kmint@@AEAV?$unique_ptr@Vactor@play@kmint@@U?$default_delete@Vactor@play@kmint@@@std@@@1@@Z
	??R?$_Rng_from_urng@IV?$mersenne_twister_engine@I$0CA@$0CHA@$0BIN@$0BP@$0JJAILANP@$0L@$0PPPPPPPP@$06$0JNCMFGIA@$0P@$0OPMGAAAA@$0BC@$0GMAHIJGF@@std@@@std@@QEAAII@Z
	??R?$default_delete@Uimpl@frame@ui@kmint@@@std@@QEBAXPEAUimpl@frame@ui@kmint@@@Z
	??R?$default_delete@V?$basic_edge@Umap_node_info@map@kmint@@@graph@kmint@@@std@@QEBAXPEAV?$basic_edge@Umap_node_info@map@kmint@@@graph@kmint@@@Z
	??R?$default_delete@V?$basic_edge@Uno_node_info@graph@kmint@@@graph@kmint@@@std@@QEBAXPEAV?$basic_edge@Uno_node_info@graph@kmint@@@graph@kmint@@@Z
	??R?$default_delete@V?$basic_node@Umap_node_info@map@kmint@@@graph@kmint@@@std@@QEBAXPEAV?$basic_node@Umap_node_info@map@kmint@@@graph@kmint@@@Z
	??R?$default_delete@V?$basic_node@Uno_node_info@graph@kmint@@@graph@kmint@@@std@@QEBAXPEAV?$basic_node@Uno_node_info@graph@kmint@@@graph@kmint@@@Z
	??R?$default_delete@V?$quad_tree@$03@play@kmint@@@std@@QEBAXPEAV?$quad_tree@$03@play@kmint@@@Z
	??R?$default_delete@V_Facet_base@std@@@std@@QEBAXPEAV_Facet_base@1@@Z
	??R?$default_delete@Vactor@play@kmint@@@std@@QEBAXPEAVactor@play@kmint@@@Z
	??R?$default_delete@Vimpl@app@ui@kmint@@@std@@QEBAXPEAVimpl@app@ui@kmint@@@Z
	??R?$default_delete@Vimpl@window@ui@kmint@@@std@@QEBAXPEAVimpl@window@ui@kmint@@@Z
	??R?$destroyer@USDL_Renderer@@@sdl@ui@kmint@@QEBAXPEAUSDL_Renderer@@@Z
	??R?$destroyer@USDL_Surface@@@sdl@ui@kmint@@QEBAXPEAUSDL_Surface@@@Z
	??R?$destroyer@USDL_Texture@@@sdl@ui@kmint@@QEBAXPEAUSDL_Texture@@@Z
	??R?$destroyer@USDL_Window@@@sdl@ui@kmint@@QEBAXPEAUSDL_Window@@@Z
	??R?$equal_to@D@std@@QEBA_NAEBD0@Z
	??R?$less@D@std@@QEBA_NAEBD0@Z
	??R?$less@V?$basic_string@DU?$char_traits@D@std@@V?$allocator@D@2@@std@@@std@@QEBA_NAEBV?$basic_string@DU?$char_traits@D@std@@V?$allocator@D@2@@1@0@Z
	??R?$mersenne_twister@I$0CA@$0CHA@$0BIN@$0BP@$0JJAILANP@$0L@$06$0JNCMFGIA@$0P@$0OPMGAAAA@$0BC@@std@@QEAAIXZ
	??Rrandom_device@std@@QEAAIXZ
	??Uevents@ui@kmint@@YA?AW4modifier@012@W43012@0@Z
	??Y?$basic_string@DU?$char_traits@D@std@@V?$allocator@D@2@@std@@QEAAAEAV01@D@Z
	??_5events@ui@kmint@@YAAEAW4modifier@012@AEAW43012@W43012@@Z
	??_D?$basic_istringstream@DU?$char_traits@D@std@@V?$allocator@D@2@@std@@QEAAXXZ
	?_Adjust@?$uniform_int@H@std@@CAII@Z
	?_Adjust@?$uniform_int@H@std@@CAIIU?$integral_constant@_N$00@2@@Z
	?_Adjust_manually_vector_aligned@std@@YAXAEAPEAXAEA_K@Z
	?_Adopt@_Iterator_base0@std@@QEAAXPEBX@Z
	?_Adopt@_Iterator_base12@std@@QEAAXPEBU_Container_base12@2@@Z
	?_Alloc_sentinel_and_proxy@?$_Tree@V?$_Tmap_traits@DUtile_info@map@kmint@@U?$less@D@std@@V?$allocator@U?$pair@$$CBDUtile_info@map@kmint@@@std@@@5@$0A@@std@@@std@@IEAAXXZ
	?_Alloc_sentinel_and_proxy@?$_Tree@V?$_Tmap_traits@V?$basic_string@DU?$char_traits@D@std@@V?$allocator@D@2@@std@@Vtexture@sdl@ui@kmint@@U?$less@V?$basic_string@DU?$char_traits@D@std@@V?$allocator@D@2@@std@@@2@V?$allocator@U?$pair@$$CBV?$basic_string@DU?$char_traits@D@std@@V?$allocator@D@2@@std@@Vtexture@sdl@ui@kmint@@@std@@@2@$0A@@std@@@std@@IEAAXXZ
	?_Alloc_sentinel_and_proxy@?$list@U?$pair@$$CBDV?$vector@PEAV?$basic_node@Umap_node_info@map@kmint@@@graph@kmint@@V?$allocator@PEAV?$basic_node@Umap_node_info@map@kmint@@@graph@kmint@@@std@@@std@@@std@@V?$allocator@U?$pair@$$CBDV?$vector@PEAV?$basic_node@Umap_node_info@map@kmint@@@graph@kmint@@V?$allocator@PEAV?$basic_node@Umap_node_info@map@kmint@@@graph@kmint@@@std@@@std@@@std@@@2@@std@@AEAAXXZ
	?_Allocate@?$_Alloc_construct_ptr@V?$allocator@U?$_List_node@U?$pair@$$CBDV?$vector@PEAV?$basic_node@Umap_node_info@map@kmint@@@graph@kmint@@V?$allocator@PEAV?$basic_node@Umap_node_info@map@kmint@@@graph@kmint@@@std@@@std@@@std@@PEAX@std@@@std@@@std@@QEAAXXZ
	?_Allocate@?$_Alloc_construct_ptr@V?$allocator@U?$_Tree_node@U?$pair@$$CBDUtile_info@map@kmint@@@std@@PEAX@std@@@std@@@std@@QEAAXXZ
	?_Allocate@?$_Alloc_construct_ptr@V?$allocator@U?$_Tree_node@U?$pair@$$CBV?$basic_string@DU?$char_traits@D@std@@V?$allocator@D@2@@std@@Vtexture@sdl@ui@kmint@@@std@@PEAX@std@@@std@@@std@@QEAAXXZ
	?_Allocate@_Default_allocate_traits@std@@SAPEAX_K@Z
	?_Assign_grow@?$_Hash_vec@V?$allocator@V?$_List_unchecked_iterator@V?$_List_val@U?$_List_simple_types@U?$pair@$$CBDV?$vector@PEAV?$basic_node@Umap_node_info@map@kmint@@@graph@kmint@@V?$allocator@PEAV?$basic_node@Umap_node_info@map@kmint@@@graph@kmint@@@std@@@std@@@std@@@std@@@std@@@std@@@std@@@std@@QEAAX_KV?$_List_unchecked_iterator@V?$_List_val@U?$_List_simple_types@U?$pair@$$CBDV?$vector@PEAV?$basic_node@Umap_node_info@map@kmint@@@graph@kmint@@V?$allocator@PEAV?$basic_node@Umap_node_info@map@kmint@@@graph@kmint@@@std@@@std@@@std@@@std@@@std@@@2@@Z
	?_Bump_erased@_Range_eraser@?$_Hash@V?$_Umap_traits@DV?$vector@PEAV?$basic_node@Umap_node_info@map@kmint@@@graph@kmint@@V?$allocator@PEAV?$basic_node@Umap_node_info@map@kmint@@@graph@kmint@@@std@@@std@@V?$_Uhash_compare@DU?$hash@D@std@@U?$equal_to@D@2@@2@V?$allocator@U?$pair@$$CBDV?$vector@PEAV?$basic_node@Umap_node_info@map@kmint@@@graph@kmint@@V?$allocator@PEAV?$basic_node@Umap_node_info@map@kmint@@@graph@kmint@@@std@@@std@@@std@@@2@$0A@@std@@@std@@QEAAXXZ
	?_Buy_nonzero@?$vector@HV?$allocator@H@std@@@std@@AEAAX_K@Z
	?_Buy_raw@?$vector@DV?$allocator@D@std@@@std@@AEAAX_K@Z
	?_Buy_raw@?$vector@HV?$allocator@H@std@@@std@@AEAAX_K@Z
	?_Calculate_growth@?$basic_string@DU?$char_traits@D@std@@V?$allocator@D@2@@std@@AEBA_K_K@Z
	?_Calculate_growth@?$basic_string@DU?$char_traits@D@std@@V?$allocator@D@2@@std@@CA_K_K00@Z
	?_Calculate_growth@?$vector@DV?$allocator@D@std@@@std@@AEBA_K_K@Z
	?_Calculate_growth@?$vector@PEAV?$basic_node@Umap_node_info@map@kmint@@@graph@kmint@@V?$allocator@PEAV?$basic_node@Umap_node_info@map@kmint@@@graph@kmint@@@std@@@std@@AEBA_K_K@Z
	?_Calculate_growth@?$vector@PEAVactor@play@kmint@@V?$allocator@PEAVactor@play@kmint@@@std@@@std@@AEBA_K_K@Z
	?_Calculate_growth@?$vector@V?$unique_ptr@V?$basic_edge@Umap_node_info@map@kmint@@@graph@kmint@@U?$default_delete@V?$basic_edge@Umap_node_info@map@kmint@@@graph@kmint@@@std@@@std@@V?$allocator@V?$unique_ptr@V?$basic_edge@Umap_node_info@map@kmint@@@graph@kmint@@U?$default_delete@V?$basic_edge@Umap_node_info@map@kmint@@@graph@kmint@@@std@@@std@@@2@@std@@AEBA_K_K@Z
	?_Calculate_growth@?$vector@V?$unique_ptr@V?$basic_edge@Uno_node_info@graph@kmint@@@graph@kmint@@U?$default_delete@V?$basic_edge@Uno_node_info@graph@kmint@@@graph@kmint@@@std@@@std@@V?$allocator@V?$unique_ptr@V?$basic_edge@Uno_node_info@graph@kmint@@@graph@kmint@@U?$default_delete@V?$basic_edge@Uno_node_info@graph@kmint@@@graph@kmint@@@std@@@std@@@2@@std@@AEBA_K_K@Z
	?_Calculate_growth@?$vector@V?$unique_ptr@V?$basic_node@Umap_node_info@map@kmint@@@graph@kmint@@U?$default_delete@V?$basic_node@Umap_node_info@map@kmint@@@graph@kmint@@@std@@@std@@V?$allocator@V?$unique_ptr@V?$basic_node@Umap_node_info@map@kmint@@@graph@kmint@@U?$default_delete@V?$basic_node@Umap_node_info@map@kmint@@@graph@kmint@@@std@@@std@@@2@@std@@AEBA_K_K@Z
	?_Calculate_growth@?$vector@V?$unique_ptr@V?$basic_node@Uno_node_info@graph@kmint@@@graph@kmint@@U?$default_delete@V?$basic_node@Uno_node_info@graph@kmint@@@graph@kmint@@@std@@@std@@V?$allocator@V?$unique_ptr@V?$basic_node@Uno_node_info@graph@kmint@@@graph@kmint@@U?$default_delete@V?$basic_node@Uno_node_info@graph@kmint@@@graph@kmint@@@std@@@std@@@2@@std@@AEBA_K_K@Z
	?_Ceiling_of_log_2@std@@YAK_K@Z
	?_Change_array@?$vector@DV?$allocator@D@std@@@std@@AEAAXQEAD_K1@Z
	?_Change_array@?$vector@PEAV?$basic_node@Umap_node_info@map@kmint@@@graph@kmint@@V?$allocator@PEAV?$basic_node@Umap_node_info@map@kmint@@@graph@kmint@@@std@@@std@@AEAAXQEAPEAV?$basic_node@Umap_node_info@map@kmint@@@graph@kmint@@_K1@Z
	?_Change_array@?$vector@PEAVactor@play@kmint@@V?$allocator@PEAVactor@play@kmint@@@std@@@std@@AEAAXQEAPEAVactor@play@kmint@@_K1@Z
	?_Change_array@?$vector@V?$unique_ptr@V?$basic_edge@Umap_node_info@map@kmint@@@graph@kmint@@U?$default_delete@V?$basic_edge@Umap_node_info@map@kmint@@@graph@kmint@@@std@@@std@@V?$allocator@V?$unique_ptr@V?$basic_edge@Umap_node_info@map@kmint@@@graph@kmint@@U?$default_delete@V?$basic_edge@Umap_node_info@map@kmint@@@graph@kmint@@@std@@@std@@@2@@std@@AEAAXQEAV?$unique_ptr@V?$basic_edge@Umap_node_info@map@kmint@@@graph@kmint@@U?$default_delete@V?$basic_edge@Umap_node_info@map@kmint@@@graph@kmint@@@std@@@2@_K1@Z
	?_Change_array@?$vector@V?$unique_ptr@V?$basic_edge@Uno_node_info@graph@kmint@@@graph@kmint@@U?$default_delete@V?$basic_edge@Uno_node_info@graph@kmint@@@graph@kmint@@@std@@@std@@V?$allocator@V?$unique_ptr@V?$basic_edge@Uno_node_info@graph@kmint@@@graph@kmint@@U?$default_delete@V?$basic_edge@Uno_node_info@graph@kmint@@@graph@kmint@@@std@@@std@@@2@@std@@AEAAXQEAV?$unique_ptr@V?$basic_edge@Uno_node_info@graph@kmint@@@graph@kmint@@U?$default_delete@V?$basic_edge@Uno_node_info@graph@kmint@@@graph@kmint@@@std@@@2@_K1@Z
	?_Change_array@?$vector@V?$unique_ptr@V?$basic_node@Umap_node_info@map@kmint@@@graph@kmint@@U?$default_delete@V?$basic_node@Umap_node_info@map@kmint@@@graph@kmint@@@std@@@std@@V?$allocator@V?$unique_ptr@V?$basic_node@Umap_node_info@map@kmint@@@graph@kmint@@U?$default_delete@V?$basic_node@Umap_node_info@map@kmint@@@graph@kmint@@@std@@@std@@@2@@std@@AEAAXQEAV?$unique_ptr@V?$basic_node@Umap_node_info@map@kmint@@@graph@kmint@@U?$default_delete@V?$basic_node@Umap_node_info@map@kmint@@@graph@kmint@@@std@@@2@_K1@Z
	?_Change_array@?$vector@V?$unique_ptr@V?$basic_node@Uno_node_info@graph@kmint@@@graph@kmint@@U?$default_delete@V?$basic_node@Uno_node_info@graph@kmint@@@graph@kmint@@@std@@@std@@V?$allocator@V?$unique_ptr@V?$basic_node@Uno_node_info@graph@kmint@@@graph@kmint@@U?$default_delete@V?$basic_node@Uno_node_info@graph@kmint@@@graph@kmint@@@std@@@std@@@2@@std@@AEAAXQEAV?$unique_ptr@V?$basic_node@Uno_node_info@graph@kmint@@@graph@kmint@@U?$default_delete@V?$basic_node@Uno_node_info@graph@kmint@@@graph@kmint@@@std@@@2@_K1@Z
	?_Check_grow_by_1@?$_Tree@V?$_Tmap_traits@DUtile_info@map@kmint@@U?$less@D@std@@V?$allocator@U?$pair@$$CBDUtile_info@map@kmint@@@std@@@5@$0A@@std@@@std@@IEAAXXZ
	?_Check_grow_by_1@?$_Tree@V?$_Tmap_traits@V?$basic_string@DU?$char_traits@D@std@@V?$allocator@D@2@@std@@Vtexture@sdl@ui@kmint@@U?$less@V?$basic_string@DU?$char_traits@D@std@@V?$allocator@D@2@@std@@@2@V?$allocator@U?$pair@$$CBV?$basic_string@DU?$char_traits@D@std@@V?$allocator@D@2@@std@@Vtexture@sdl@ui@kmint@@@std@@@2@$0A@@std@@@std@@IEAAXXZ
	?_Check_max_size@?$_Hash@V?$_Umap_traits@DV?$vector@PEAV?$basic_node@Umap_node_info@map@kmint@@@graph@kmint@@V?$allocator@PEAV?$basic_node@Umap_node_info@map@kmint@@@graph@kmint@@@std@@@std@@V?$_Uhash_compare@DU?$hash@D@std@@U?$equal_to@D@2@@2@V?$allocator@U?$pair@$$CBDV?$vector@PEAV?$basic_node@Umap_node_info@map@kmint@@@graph@kmint@@V?$allocator@PEAV?$basic_node@Umap_node_info@map@kmint@@@graph@kmint@@@std@@@std@@@std@@@2@$0A@@std@@@std@@IEBAXXZ
	?_Check_offset@?$_String_val@U?$_Simple_types@D@std@@@std@@QEBAX_K@Z
	?_Check_rehash_required_1@?$_Hash@V?$_Umap_traits@DV?$vector@PEAV?$basic_node@Umap_node_info@map@kmint@@@graph@kmint@@V?$allocator@PEAV?$basic_node@Umap_node_info@map@kmint@@@graph@kmint@@@std@@@std@@V?$_Uhash_compare@DU?$hash@D@std@@U?$equal_to@D@2@@2@V?$allocator@U?$pair@$$CBDV?$vector@PEAV?$basic_node@Umap_node_info@map@kmint@@@graph@kmint@@V?$allocator@PEAV?$basic_node@Umap_node_info@map@kmint@@@graph@kmint@@@std@@@std@@@std@@@2@$0A@@std@@@std@@IEBA_NXZ
	?_Compat@?$_Vector_const_iterator@V?$_Vector_val@U?$_Simple_types@V?$unique_ptr@V?$basic_node@Umap_node_info@map@kmint@@@graph@kmint@@U?$default_delete@V?$basic_node@Umap_node_info@map@kmint@@@graph@kmint@@@std@@@std@@@std@@@std@@@std@@QEBAXAEBV12@@Z
	?_Compat@?$_Vector_const_iterator@V?$_Vector_val@U?$_Simple_types@V?$unique_ptr@Vactor@play@kmint@@U?$default_delete@Vactor@play@kmint@@@std@@@std@@@std@@@std@@@std@@QEBAXAEBV12@@Z
	?_Construct_lv_contents@?$basic_string@DU?$char_traits@D@std@@V?$allocator@D@2@@std@@AEAAXAEBV12@@Z
	?_Copy@?$_Func_impl_no_alloc@P6AAEAV?$basic_node@Umap_node_info@map@kmint@@@graph@kmint@@AEBV?$unique_ptr@V?$basic_node@Umap_node_info@map@kmint@@@graph@kmint@@U?$default_delete@V?$basic_node@Umap_node_info@map@kmint@@@graph@kmint@@@std@@@std@@@ZAEAV123@AEAV45@@std@@EEBAPEAV?$_Func_base@AEAV?$basic_node@Umap_node_info@map@kmint@@@graph@kmint@@AEAV?$unique_ptr@V?$basic_node@Umap_node_info@map@kmint@@@graph@kmint@@U?$default_delete@V?$basic_node@Umap_node_info@map@kmint@@@graph@kmint@@@std@@@std@@@2@PEAX@Z
	?_Copy@?$_Func_impl_no_alloc@P6AAEAVactor@play@kmint@@AEBV?$unique_ptr@Vactor@play@kmint@@U?$default_delete@Vactor@play@kmint@@@std@@@std@@@ZAEAV123@AEAV45@@std@@EEBAPEAV?$_Func_base@AEAVactor@play@kmint@@AEAV?$unique_ptr@Vactor@play@kmint@@U?$default_delete@Vactor@play@kmint@@@std@@@std@@@2@PEAX@Z
	?_Copy@?$_Func_impl_no_alloc@P6AAEBVactor@play@kmint@@AEBV?$unique_ptr@Vactor@play@kmint@@U?$default_delete@Vactor@play@kmint@@@std@@@std@@@ZAEBV123@AEBV45@@std@@EEBAPEAV?$_Func_base@AEBVactor@play@kmint@@AEBV?$unique_ptr@Vactor@play@kmint@@U?$default_delete@Vactor@play@kmint@@@std@@@std@@@2@PEAX@Z
	?_Delete_this@?$_Func_impl_no_alloc@P6AAEAV?$basic_node@Umap_node_info@map@kmint@@@graph@kmint@@AEBV?$unique_ptr@V?$basic_node@Umap_node_info@map@kmint@@@graph@kmint@@U?$default_delete@V?$basic_node@Umap_node_info@map@kmint@@@graph@kmint@@@std@@@std@@@ZAEAV123@AEAV45@@std@@EEAAX_N@Z
	?_Delete_this@?$_Func_impl_no_alloc@P6AAEAVactor@play@kmint@@AEBV?$unique_ptr@Vactor@play@kmint@@U?$default_delete@Vactor@play@kmint@@@std@@@std@@@ZAEAV123@AEAV45@@std@@EEAAX_N@Z
	?_Delete_this@?$_Func_impl_no_alloc@P6AAEBVactor@play@kmint@@AEBV?$unique_ptr@Vactor@play@kmint@@U?$default_delete@Vactor@play@kmint@@@std@@@std@@@ZAEBV123@AEBV45@@std@@EEAAX_N@Z
	?_Desired_grow_bucket_count@?$_Hash@V?$_Umap_traits@DV?$vector@PEAV?$basic_node@Umap_node_info@map@kmint@@@graph@kmint@@V?$allocator@PEAV?$basic_node@Umap_node_info@map@kmint@@@graph@kmint@@@std@@@std@@V?$_Uhash_compare@DU?$hash@D@std@@U?$equal_to@D@2@@2@V?$allocator@U?$pair@$$CBDV?$vector@PEAV?$basic_node@Umap_node_info@map@kmint@@@graph@kmint@@V?$allocator@PEAV?$basic_node@Umap_node_info@map@kmint@@@graph@kmint@@@std@@@std@@@std@@@2@$0A@@std@@@std@@IEBA_K_K@Z
	?_Destroy@?$_Variant_base@Ufree@?$quad_tree@$03@play@kmint@@Usaturated@234@@std@@QEAAXXZ
	?_Destroy@?$vector@DV?$allocator@D@std@@@std@@AEAAXPEAD0@Z
	?_Destroy@?$vector@HV?$allocator@H@std@@@std@@AEAAXPEAH0@Z
	?_Destroy@?$vector@PEAV?$basic_node@Umap_node_info@map@kmint@@@graph@kmint@@V?$allocator@PEAV?$basic_node@Umap_node_info@map@kmint@@@graph@kmint@@@std@@@std@@AEAAXPEAPEAV?$basic_node@Umap_node_info@map@kmint@@@graph@kmint@@0@Z
	?_Destroy@?$vector@PEAVactor@play@kmint@@V?$allocator@PEAVactor@play@kmint@@@std@@@std@@AEAAXPEAPEAVactor@play@kmint@@0@Z
	?_Destroy@?$vector@V?$unique_ptr@V?$basic_edge@Umap_node_info@map@kmint@@@graph@kmint@@U?$default_delete@V?$basic_edge@Umap_node_info@map@kmint@@@graph@kmint@@@std@@@std@@V?$allocator@V?$unique_ptr@V?$basic_edge@Umap_node_info@map@kmint@@@graph@kmint@@U?$default_delete@V?$basic_edge@Umap_node_info@map@kmint@@@graph@kmint@@@std@@@std@@@2@@std@@AEAAXPEAV?$unique_ptr@V?$basic_edge@Umap_node_info@map@kmint@@@graph@kmint@@U?$default_delete@V?$basic_edge@Umap_node_info@map@kmint@@@graph@kmint@@@std@@@2@0@Z
	?_Destroy@?$vector@V?$unique_ptr@V?$basic_edge@Uno_node_info@graph@kmint@@@graph@kmint@@U?$default_delete@V?$basic_edge@Uno_node_info@graph@kmint@@@graph@kmint@@@std@@@std@@V?$allocator@V?$unique_ptr@V?$basic_edge@Uno_node_info@graph@kmint@@@graph@kmint@@U?$default_delete@V?$basic_edge@Uno_node_info@graph@kmint@@@graph@kmint@@@std@@@std@@@2@@std@@AEAAXPEAV?$unique_ptr@V?$basic_edge@Uno_node_info@graph@kmint@@@graph@kmint@@U?$default_delete@V?$basic_edge@Uno_node_info@graph@kmint@@@graph@kmint@@@std@@@2@0@Z
	?_Destroy@?$vector@V?$unique_ptr@V?$basic_node@Umap_node_info@map@kmint@@@graph@kmint@@U?$default_delete@V?$basic_node@Umap_node_info@map@kmint@@@graph@kmint@@@std@@@std@@V?$allocator@V?$unique_ptr@V?$basic_node@Umap_node_info@map@kmint@@@graph@kmint@@U?$default_delete@V?$basic_node@Umap_node_info@map@kmint@@@graph@kmint@@@std@@@std@@@2@@std@@AEAAXPEAV?$unique_ptr@V?$basic_node@Umap_node_info@map@kmint@@@graph@kmint@@U?$default_delete@V?$basic_node@Umap_node_info@map@kmint@@@graph@kmint@@@std@@@2@0@Z
	?_Destroy@?$vector@V?$unique_ptr@V?$basic_node@Uno_node_info@graph@kmint@@@graph@kmint@@U?$default_delete@V?$basic_node@Uno_node_info@graph@kmint@@@graph@kmint@@@std@@@std@@V?$allocator@V?$unique_ptr@V?$basic_node@Uno_node_info@graph@kmint@@@graph@kmint@@U?$default_delete@V?$basic_node@Uno_node_info@graph@kmint@@@graph@kmint@@@std@@@std@@@2@@std@@AEAAXPEAV?$unique_ptr@V?$basic_node@Uno_node_info@graph@kmint@@@graph@kmint@@U?$default_delete@V?$basic_node@Uno_node_info@graph@kmint@@@graph@kmint@@@std@@@2@0@Z
	?_Destroy@?$vector@V?$unique_ptr@Vactor@play@kmint@@U?$default_delete@Vactor@play@kmint@@@std@@@std@@V?$allocator@V?$unique_ptr@Vactor@play@kmint@@U?$default_delete@Vactor@play@kmint@@@std@@@std@@@2@@std@@AEAAXPEAV?$unique_ptr@Vactor@play@kmint@@U?$default_delete@Vactor@play@kmint@@@std@@@2@0@Z
	?_Do_call@?$_Func_impl_no_alloc@P6AAEAV?$basic_node@Umap_node_info@map@kmint@@@graph@kmint@@AEBV?$unique_ptr@V?$basic_node@Umap_node_info@map@kmint@@@graph@kmint@@U?$default_delete@V?$basic_node@Umap_node_info@map@kmint@@@graph@kmint@@@std@@@std@@@ZAEAV123@AEAV45@@std@@EEAAAEAV?$basic_node@Umap_node_info@map@kmint@@@graph@kmint@@AEAV?$unique_ptr@V?$basic_node@Umap_node_info@map@kmint@@@graph@kmint@@U?$default_delete@V?$basic_node@Umap_node_info@map@kmint@@@graph@kmint@@@std@@@2@@Z
	?_Do_call@?$_Func_impl_no_alloc@P6AAEAVactor@play@kmint@@AEBV?$unique_ptr@Vactor@play@kmint@@U?$default_delete@Vactor@play@kmint@@@std@@@std@@@ZAEAV123@AEAV45@@std@@EEAAAEAVactor@play@kmint@@AEAV?$unique_ptr@Vactor@play@kmint@@U?$default_delete@Vactor@play@kmint@@@std@@@2@@Z
	?_Do_call@?$_Func_impl_no_alloc@P6AAEBVactor@play@kmint@@AEBV?$unique_ptr@Vactor@play@kmint@@U?$default_delete@Vactor@play@kmint@@@std@@@std@@@ZAEBV123@AEBV45@@std@@EEAAAEBVactor@play@kmint@@AEBV?$unique_ptr@Vactor@play@kmint@@U?$default_delete@Vactor@play@kmint@@@std@@@2@@Z
	?_Do_hash@?$hash@D@std@@SA_KAEBD@Z
	?_Empty@?$_Func_class@AEAV?$basic_node@Umap_node_info@map@kmint@@@graph@kmint@@AEAV?$unique_ptr@V?$basic_node@Umap_node_info@map@kmint@@@graph@kmint@@U?$default_delete@V?$basic_node@Umap_node_info@map@kmint@@@graph@kmint@@@std@@@std@@@std@@IEBA_NXZ
	?_Empty@?$_Func_class@AEAVactor@play@kmint@@AEAV?$unique_ptr@Vactor@play@kmint@@U?$default_delete@Vactor@play@kmint@@@std@@@std@@@std@@IEBA_NXZ
	?_Empty@?$_Func_class@AEBVactor@play@kmint@@AEBV?$unique_ptr@Vactor@play@kmint@@U?$default_delete@Vactor@play@kmint@@@std@@@std@@@std@@IEBA_NXZ
	?_Eos@?$basic_string@DU?$char_traits@D@std@@V?$allocator@D@2@@std@@AEAAX_K@Z
	?_Equal@?$istream_iterator@DDU?$char_traits@D@std@@_J@std@@QEBA_NAEBV12@@Z
	?_Extract@?$_In_place_key_extract_map@DDUtile_info@map@kmint@@@std@@SAAEBDAEBDAEBUtile_info@map@kmint@@@Z
	?_Extract@?$_In_place_key_extract_map@V?$basic_string@DU?$char_traits@D@std@@V?$allocator@D@2@@std@@U?$pair@V?$basic_string@DU?$char_traits@D@std@@V?$allocator@D@2@@std@@Vtexture@sdl@ui@kmint@@@2@@std@@SAAEBV?$basic_string@DU?$char_traits@D@std@@V?$allocator@D@2@@2@AEBU?$pair@V?$basic_string@DU?$char_traits@D@std@@V?$allocator@D@2@@std@@Vtexture@sdl@ui@kmint@@@2@@Z
	?_Floor_of_log_2@std@@YAK_K@Z
	?_Fnv1a_append_bytes@std@@YA_K_KQEBE_K@Z
	?_Forced_rehash@?$_Hash@V?$_Umap_traits@DV?$vector@PEAV?$basic_node@Umap_node_info@map@kmint@@@graph@kmint@@V?$allocator@PEAV?$basic_node@Umap_node_info@map@kmint@@@graph@kmint@@@std@@@std@@V?$_Uhash_compare@DU?$hash@D@std@@U?$equal_to@D@2@@2@V?$allocator@U?$pair@$$CBDV?$vector@PEAV?$basic_node@Umap_node_info@map@kmint@@@graph@kmint@@V?$allocator@PEAV?$basic_node@Umap_node_info@map@kmint@@@graph@kmint@@@std@@@std@@@std@@@2@$0A@@std@@@std@@IEAAX_K@Z
	?_Get@?$_Func_impl_no_alloc@P6AAEAV?$basic_node@Umap_node_info@map@kmint@@@graph@kmint@@AEBV?$unique_ptr@V?$basic_node@Umap_node_info@map@kmint@@@graph@kmint@@U?$default_delete@V?$basic_node@Umap_node_info@map@kmint@@@graph@kmint@@@std@@@std@@@ZAEAV123@AEAV45@@std@@EEBAPEBXXZ
	?_Get@?$_Func_impl_no_alloc@P6AAEAVactor@play@kmint@@AEBV?$unique_ptr@Vactor@play@kmint@@U?$default_delete@Vactor@play@kmint@@@std@@@std@@@ZAEAV123@AEAV45@@std@@EEBAPEBXXZ
	?_Get@?$_Func_impl_no_alloc@P6AAEBVactor@play@kmint@@AEBV?$unique_ptr@Vactor@play@kmint@@U?$default_delete@Vactor@play@kmint@@@std@@@std@@@ZAEBV123@AEBV45@@std@@EEBAPEBXXZ
	?_Get@?$_Variant_storage_@$0A@Ufree@?$quad_tree@$03@play@kmint@@Usaturated@234@@std@@QEGAAAEAUfree@?$quad_tree@$03@play@kmint@@XZ
	?_Get@?$_Variant_storage_@$0A@Ufree@?$quad_tree@$03@play@kmint@@Usaturated@234@@std@@QEGBAAEBUfree@?$quad_tree@$03@play@kmint@@XZ
	?_Get@?$_Variant_storage_@$0A@Usaturated@?$quad_tree@$03@play@kmint@@@std@@QEGAAAEAUsaturated@?$quad_tree@$03@play@kmint@@XZ
	?_Get@?$_Variant_storage_@$0A@Usaturated@?$quad_tree@$03@play@kmint@@@std@@QEGBAAEBUsaturated@?$quad_tree@$03@play@kmint@@XZ
	?_Get_all_bits@?$_Rng_from_urng@IV?$mersenne_twister_engine@I$0CA@$0CHA@$0BIN@$0BP@$0JJAILANP@$0L@$0PPPPPPPP@$06$0JNCMFGIA@$0P@$0OPMGAAAA@$0BC@$0GMAHIJGF@@std@@@std@@QEAAIXZ
	?_Get_bits@?$_Rng_from_urng@IV?$mersenne_twister_engine@I$0CA@$0CHA@$0BIN@$0BP@$0JJAILANP@$0L@$0PPPPPPPP@$06$0JNCMFGIA@$0P@$0OPMGAAAA@$0BC@$0GMAHIJGF@@std@@@std@@AEAAIXZ
	?_Get_first@?$_Compressed_pair@U?$default_delete@Uimpl@frame@ui@kmint@@@std@@PEAUimpl@frame@ui@kmint@@$00@std@@QEAAAEAU?$default_delete@Uimpl@frame@ui@kmint@@@2@XZ
	?_Get_first@?$_Compressed_pair@U?$default_delete@V?$basic_edge@Umap_node_info@map@kmint@@@graph@kmint@@@std@@PEAV?$basic_edge@Umap_node_info@map@kmint@@@graph@kmint@@$00@std@@QEAAAEAU?$default_delete@V?$basic_edge@Umap_node_info@map@kmint@@@graph@kmint@@@2@XZ
	?_Get_first@?$_Compressed_pair@U?$default_delete@V?$basic_edge@Uno_node_info@graph@kmint@@@graph@kmint@@@std@@PEAV?$basic_edge@Uno_node_info@graph@kmint@@@graph@kmint@@$00@std@@QEAAAEAU?$default_delete@V?$basic_edge@Uno_node_info@graph@kmint@@@graph@kmint@@@2@XZ
	?_Get_first@?$_Compressed_pair@U?$default_delete@V?$basic_node@Umap_node_info@map@kmint@@@graph@kmint@@@std@@PEAV?$basic_node@Umap_node_info@map@kmint@@@graph@kmint@@$00@std@@QEAAAEAU?$default_delete@V?$basic_node@Umap_node_info@map@kmint@@@graph@kmint@@@2@XZ
	?_Get_first@?$_Compressed_pair@U?$default_delete@V?$basic_node@Uno_node_info@graph@kmint@@@graph@kmint@@@std@@PEAV?$basic_node@Uno_node_info@graph@kmint@@@graph@kmint@@$00@std@@QEAAAEAU?$default_delete@V?$basic_node@Uno_node_info@graph@kmint@@@graph@kmint@@@2@XZ
	?_Get_first@?$_Compressed_pair@U?$default_delete@V?$quad_tree@$03@play@kmint@@@std@@PEAV?$quad_tree@$03@play@kmint@@$00@std@@QEAAAEAU?$default_delete@V?$quad_tree@$03@play@kmint@@@2@XZ
	?_Get_first@?$_Compressed_pair@U?$default_delete@V_Facet_base@std@@@std@@PEAV_Facet_base@2@$00@std@@QEAAAEAU?$default_delete@V_Facet_base@std@@@2@XZ
	?_Get_first@?$_Compressed_pair@U?$default_delete@Vactor@play@kmint@@@std@@PEAVactor@play@kmint@@$00@std@@QEAAAEAU?$default_delete@Vactor@play@kmint@@@2@XZ
	?_Get_first@?$_Compressed_pair@U?$default_delete@Vimpl@app@ui@kmint@@@std@@PEAVimpl@app@ui@kmint@@$00@std@@QEAAAEAU?$default_delete@Vimpl@app@ui@kmint@@@2@XZ
	?_Get_first@?$_Compressed_pair@U?$default_delete@Vimpl@window@ui@kmint@@@std@@PEAVimpl@window@ui@kmint@@$00@std@@QEAAAEAU?$default_delete@Vimpl@window@ui@kmint@@@2@XZ
	?_Get_first@?$_Compressed_pair@U?$equal_to@D@std@@M$00@std@@QEBAAEBU?$equal_to@D@2@XZ
	?_Get_first@?$_Compressed_pair@U?$hash@D@std@@V?$_Compressed_pair@U?$equal_to@D@std@@M$00@2@$00@std@@QEBAAEBU?$hash@D@2@XZ
	?_Get_first@?$_Compressed_pair@U?$less@D@std@@V?$_Compressed_pair@V?$allocator@U?$_Tree_node@U?$pair@$$CBDUtile_info@map@kmint@@@std@@PEAX@std@@@std@@V?$_Tree_val@U?$_Tree_simple_types@U?$pair@$$CBDUtile_info@map@kmint@@@std@@@std@@@2@$00@2@$00@std@@QEBAAEBU?$less@D@2@XZ
	?_Get_first@?$_Compressed_pair@U?$less@V?$basic_string@DU?$char_traits@D@std@@V?$allocator@D@2@@std@@@std@@V?$_Compressed_pair@V?$allocator@U?$_Tree_node@U?$pair@$$CBV?$basic_string@DU?$char_traits@D@std@@V?$allocator@D@2@@std@@Vtexture@sdl@ui@kmint@@@std@@PEAX@std@@@std@@V?$_Tree_val@U?$_Tree_simple_types@U?$pair@$$CBV?$basic_string@DU?$char_traits@D@std@@V?$allocator@D@2@@std@@Vtexture@sdl@ui@kmint@@@std@@@std@@@2@$00@2@$00@std@@QEBAAEBU?$less@V?$basic_string@DU?$char_traits@D@std@@V?$allocator@D@2@@std@@@2@XZ
	?_Get_first@?$_Compressed_pair@V?$allocator@D@std@@V?$_String_val@U?$_Simple_types@D@std@@@2@$00@std@@QEAAAEAV?$allocator@D@2@XZ
	?_Get_first@?$_Compressed_pair@V?$allocator@D@std@@V?$_String_val@U?$_Simple_types@D@std@@@2@$00@std@@QEBAAEBV?$allocator@D@2@XZ
	?_Get_first@?$_Compressed_pair@V?$allocator@D@std@@V?$_Vector_val@U?$_Simple_types@D@std@@@2@$00@std@@QEAAAEAV?$allocator@D@2@XZ
	?_Get_first@?$_Compressed_pair@V?$allocator@D@std@@V?$_Vector_val@U?$_Simple_types@D@std@@@2@$00@std@@QEBAAEBV?$allocator@D@2@XZ
	?_Get_first@?$_Compressed_pair@V?$allocator@H@std@@V?$_Vector_val@U?$_Simple_types@H@std@@@2@$00@std@@QEAAAEAV?$allocator@H@2@XZ
	?_Get_first@?$_Compressed_pair@V?$allocator@H@std@@V?$_Vector_val@U?$_Simple_types@H@std@@@2@$00@std@@QEBAAEBV?$allocator@H@2@XZ
	?_Get_first@?$_Compressed_pair@V?$allocator@PEAV?$basic_node@Umap_node_info@map@kmint@@@graph@kmint@@@std@@V?$_Vector_val@U?$_Simple_types@PEAV?$basic_node@Umap_node_info@map@kmint@@@graph@kmint@@@std@@@2@$00@std@@QEAAAEAV?$allocator@PEAV?$basic_node@Umap_node_info@map@kmint@@@graph@kmint@@@2@XZ
	?_Get_first@?$_Compressed_pair@V?$allocator@PEAV?$basic_node@Umap_node_info@map@kmint@@@graph@kmint@@@std@@V?$_Vector_val@U?$_Simple_types@PEAV?$basic_node@Umap_node_info@map@kmint@@@graph@kmint@@@std@@@2@$00@std@@QEBAAEBV?$allocator@PEAV?$basic_node@Umap_node_info@map@kmint@@@graph@kmint@@@2@XZ
	?_Get_first@?$_Compressed_pair@V?$allocator@PEAVactor@play@kmint@@@std@@V?$_Vector_val@U?$_Simple_types@PEAVactor@play@kmint@@@std@@@2@$00@std@@QEAAAEAV?$allocator@PEAVactor@play@kmint@@@2@XZ
	?_Get_first@?$_Compressed_pair@V?$allocator@PEAVactor@play@kmint@@@std@@V?$_Vector_val@U?$_Simple_types@PEAVactor@play@kmint@@@std@@@2@$00@std@@QEBAAEBV?$allocator@PEAVactor@play@kmint@@@2@XZ
	?_Get_first@?$_Compressed_pair@V?$allocator@U?$_List_node@U?$pair@$$CBDV?$vector@PEAV?$basic_node@Umap_node_info@map@kmint@@@graph@kmint@@V?$allocator@PEAV?$basic_node@Umap_node_info@map@kmint@@@graph@kmint@@@std@@@std@@@std@@PEAX@std@@@std@@V?$_List_val@U?$_List_simple_types@U?$pair@$$CBDV?$vector@PEAV?$basic_node@Umap_node_info@map@kmint@@@graph@kmint@@V?$allocator@PEAV?$basic_node@Umap_node_info@map@kmint@@@graph@kmint@@@std@@@std@@@std@@@std@@@2@$00@std@@QEAAAEAV?$allocator@U?$_List_node@U?$pair@$$CBDV?$vector@PEAV?$basic_node@Umap_node_info@map@kmint@@@graph@kmint@@V?$allocator@PEAV?$basic_node@Umap_node_info@map@kmint@@@graph@kmint@@@std@@@std@@@std@@PEAX@std@@@2@XZ
	?_Get_first@?$_Compressed_pair@V?$allocator@U?$_List_node@U?$pair@$$CBDV?$vector@PEAV?$basic_node@Umap_node_info@map@kmint@@@graph@kmint@@V?$allocator@PEAV?$basic_node@Umap_node_info@map@kmint@@@graph@kmint@@@std@@@std@@@std@@PEAX@std@@@std@@V?$_List_val@U?$_List_simple_types@U?$pair@$$CBDV?$vector@PEAV?$basic_node@Umap_node_info@map@kmint@@@graph@kmint@@V?$allocator@PEAV?$basic_node@Umap_node_info@map@kmint@@@graph@kmint@@@std@@@std@@@std@@@std@@@2@$00@std@@QEBAAEBV?$allocator@U?$_List_node@U?$pair@$$CBDV?$vector@PEAV?$basic_node@Umap_node_info@map@kmint@@@graph@kmint@@V?$allocator@PEAV?$basic_node@Umap_node_info@map@kmint@@@graph@kmint@@@std@@@std@@@std@@PEAX@std@@@2@XZ
	?_Get_first@?$_Compressed_pair@V?$allocator@U?$_Tree_node@U?$pair@$$CBDUtile_info@map@kmint@@@std@@PEAX@std@@@std@@V?$_Tree_val@U?$_Tree_simple_types@U?$pair@$$CBDUtile_info@map@kmint@@@std@@@std@@@2@$00@std@@QEAAAEAV?$allocator@U?$_Tree_node@U?$pair@$$CBDUtile_info@map@kmint@@@std@@PEAX@std@@@2@XZ
	?_Get_first@?$_Compressed_pair@V?$allocator@U?$_Tree_node@U?$pair@$$CBDUtile_info@map@kmint@@@std@@PEAX@std@@@std@@V?$_Tree_val@U?$_Tree_simple_types@U?$pair@$$CBDUtile_info@map@kmint@@@std@@@std@@@2@$00@std@@QEBAAEBV?$allocator@U?$_Tree_node@U?$pair@$$CBDUtile_info@map@kmint@@@std@@PEAX@std@@@2@XZ
	?_Get_first@?$_Compressed_pair@V?$allocator@U?$_Tree_node@U?$pair@$$CBV?$basic_string@DU?$char_traits@D@std@@V?$allocator@D@2@@std@@Vtexture@sdl@ui@kmint@@@std@@PEAX@std@@@std@@V?$_Tree_val@U?$_Tree_simple_types@U?$pair@$$CBV?$basic_string@DU?$char_traits@D@std@@V?$allocator@D@2@@std@@Vtexture@sdl@ui@kmint@@@std@@@std@@@2@$00@std@@QEAAAEAV?$allocator@U?$_Tree_node@U?$pair@$$CBV?$basic_string@DU?$char_traits@D@std@@V?$allocator@D@2@@std@@Vtexture@sdl@ui@kmint@@@std@@PEAX@std@@@2@XZ
	?_Get_first@?$_Compressed_pair@V?$allocator@U?$_Tree_node@U?$pair@$$CBV?$basic_string@DU?$char_traits@D@std@@V?$allocator@D@2@@std@@Vtexture@sdl@ui@kmint@@@std@@PEAX@std@@@std@@V?$_Tree_val@U?$_Tree_simple_types@U?$pair@$$CBV?$basic_string@DU?$char_traits@D@std@@V?$allocator@D@2@@std@@Vtexture@sdl@ui@kmint@@@std@@@std@@@2@$00@std@@QEBAAEBV?$allocator@U?$_Tree_node@U?$pair@$$CBV?$basic_string@DU?$char_traits@D@std@@V?$allocator@D@2@@std@@Vtexture@sdl@ui@kmint@@@std@@PEAX@std@@@2@XZ
	?_Get_first@?$_Compressed_pair@V?$allocator@V?$_List_unchecked_iterator@V?$_List_val@U?$_List_simple_types@U?$pair@$$CBDV?$vector@PEAV?$basic_node@Umap_node_info@map@kmint@@@graph@kmint@@V?$allocator@PEAV?$basic_node@Umap_node_info@map@kmint@@@graph@kmint@@@std@@@std@@@std@@@std@@@std@@@std@@@std@@V?$_Vector_val@U?$_Simple_types@V?$_List_unchecked_iterator@V?$_List_val@U?$_List_simple_types@U?$pair@$$CBDV?$vector@PEAV?$basic_node@Umap_node_info@map@kmint@@@graph@kmint@@V?$allocator@PEAV?$basic_node@Umap_node_info@map@kmint@@@graph@kmint@@@std@@@std@@@std@@@std@@@std@@@std@@@std@@@2@$00@std@@QEAAAEAV?$allocator@V?$_List_unchecked_iterator@V?$_List_val@U?$_List_simple_types@U?$pair@$$CBDV?$vector@PEAV?$basic_node@Umap_node_info@map@kmint@@@graph@kmint@@V?$allocator@PEAV?$basic_node@Umap_node_info@map@kmint@@@graph@kmint@@@std@@@std@@@std@@@std@@@std@@@std@@@2@XZ
	?_Get_first@?$_Compressed_pair@V?$allocator@V?$_List_unchecked_iterator@V?$_List_val@U?$_List_simple_types@U?$pair@$$CBDV?$vector@PEAV?$basic_node@Umap_node_info@map@kmint@@@graph@kmint@@V?$allocator@PEAV?$basic_node@Umap_node_info@map@kmint@@@graph@kmint@@@std@@@std@@@std@@@std@@@std@@@std@@@std@@V?$_Vector_val@U?$_Simple_types@V?$_List_unchecked_iterator@V?$_List_val@U?$_List_simple_types@U?$pair@$$CBDV?$vector@PEAV?$basic_node@Umap_node_info@map@kmint@@@graph@kmint@@V?$allocator@PEAV?$basic_node@Umap_node_info@map@kmint@@@graph@kmint@@@std@@@std@@@std@@@std@@@std@@@std@@@std@@@2@$00@std@@QEBAAEBV?$allocator@V?$_List_unchecked_iterator@V?$_List_val@U?$_List_simple_types@U?$pair@$$CBDV?$vector@PEAV?$basic_node@Umap_node_info@map@kmint@@@graph@kmint@@V?$allocator@PEAV?$basic_node@Umap_node_info@map@kmint@@@graph@kmint@@@std@@@std@@@std@@@std@@@std@@@std@@@2@XZ
	?_Get_first@?$_Compressed_pair@V?$allocator@V?$unique_ptr@V?$basic_edge@Umap_node_info@map@kmint@@@graph@kmint@@U?$default_delete@V?$basic_edge@Umap_node_info@map@kmint@@@graph@kmint@@@std@@@std@@@std@@V?$_Vector_val@U?$_Simple_types@V?$unique_ptr@V?$basic_edge@Umap_node_info@map@kmint@@@graph@kmint@@U?$default_delete@V?$basic_edge@Umap_node_info@map@kmint@@@graph@kmint@@@std@@@std@@@std@@@2@$00@std@@QEAAAEAV?$allocator@V?$unique_ptr@V?$basic_edge@Umap_node_info@map@kmint@@@graph@kmint@@U?$default_delete@V?$basic_edge@Umap_node_info@map@kmint@@@graph@kmint@@@std@@@std@@@2@XZ
	?_Get_first@?$_Compressed_pair@V?$allocator@V?$unique_ptr@V?$basic_edge@Umap_node_info@map@kmint@@@graph@kmint@@U?$default_delete@V?$basic_edge@Umap_node_info@map@kmint@@@graph@kmint@@@std@@@std@@@std@@V?$_Vector_val@U?$_Simple_types@V?$unique_ptr@V?$basic_edge@Umap_node_info@map@kmint@@@graph@kmint@@U?$default_delete@V?$basic_edge@Umap_node_info@map@kmint@@@graph@kmint@@@std@@@std@@@std@@@2@$00@std@@QEBAAEBV?$allocator@V?$unique_ptr@V?$basic_edge@Umap_node_info@map@kmint@@@graph@kmint@@U?$default_delete@V?$basic_edge@Umap_node_info@map@kmint@@@graph@kmint@@@std@@@std@@@2@XZ
	?_Get_first@?$_Compressed_pair@V?$allocator@V?$unique_ptr@V?$basic_edge@Uno_node_info@graph@kmint@@@graph@kmint@@U?$default_delete@V?$basic_edge@Uno_node_info@graph@kmint@@@graph@kmint@@@std@@@std@@@std@@V?$_Vector_val@U?$_Simple_types@V?$unique_ptr@V?$basic_edge@Uno_node_info@graph@kmint@@@graph@kmint@@U?$default_delete@V?$basic_edge@Uno_node_info@graph@kmint@@@graph@kmint@@@std@@@std@@@std@@@2@$00@std@@QEAAAEAV?$allocator@V?$unique_ptr@V?$basic_edge@Uno_node_info@graph@kmint@@@graph@kmint@@U?$default_delete@V?$basic_edge@Uno_node_info@graph@kmint@@@graph@kmint@@@std@@@std@@@2@XZ
	?_Get_first@?$_Compressed_pair@V?$allocator@V?$unique_ptr@V?$basic_edge@Uno_node_info@graph@kmint@@@graph@kmint@@U?$default_delete@V?$basic_edge@Uno_node_info@graph@kmint@@@graph@kmint@@@std@@@std@@@std@@V?$_Vector_val@U?$_Simple_types@V?$unique_ptr@V?$basic_edge@Uno_node_info@graph@kmint@@@graph@kmint@@U?$default_delete@V?$basic_edge@Uno_node_info@graph@kmint@@@graph@kmint@@@std@@@std@@@std@@@2@$00@std@@QEBAAEBV?$allocator@V?$unique_ptr@V?$basic_edge@Uno_node_info@graph@kmint@@@graph@kmint@@U?$default_delete@V?$basic_edge@Uno_node_info@graph@kmint@@@graph@kmint@@@std@@@std@@@2@XZ
	?_Get_first@?$_Compressed_pair@V?$allocator@V?$unique_ptr@V?$basic_node@Umap_node_info@map@kmint@@@graph@kmint@@U?$default_delete@V?$basic_node@Umap_node_info@map@kmint@@@graph@kmint@@@std@@@std@@@std@@V?$_Vector_val@U?$_Simple_types@V?$unique_ptr@V?$basic_node@Umap_node_info@map@kmint@@@graph@kmint@@U?$default_delete@V?$basic_node@Umap_node_info@map@kmint@@@graph@kmint@@@std@@@std@@@std@@@2@$00@std@@QEAAAEAV?$allocator@V?$unique_ptr@V?$basic_node@Umap_node_info@map@kmint@@@graph@kmint@@U?$default_delete@V?$basic_node@Umap_node_info@map@kmint@@@graph@kmint@@@std@@@std@@@2@XZ
	?_Get_first@?$_Compressed_pair@V?$allocator@V?$unique_ptr@V?$basic_node@Umap_node_info@map@kmint@@@graph@kmint@@U?$default_delete@V?$basic_node@Umap_node_info@map@kmint@@@graph@kmint@@@std@@@std@@@std@@V?$_Vector_val@U?$_Simple_types@V?$unique_ptr@V?$basic_node@Umap_node_info@map@kmint@@@graph@kmint@@U?$default_delete@V?$basic_node@Umap_node_info@map@kmint@@@graph@kmint@@@std@@@std@@@std@@@2@$00@std@@QEBAAEBV?$allocator@V?$unique_ptr@V?$basic_node@Umap_node_info@map@kmint@@@graph@kmint@@U?$default_delete@V?$basic_node@Umap_node_info@map@kmint@@@graph@kmint@@@std@@@std@@@2@XZ
	?_Get_first@?$_Compressed_pair@V?$allocator@V?$unique_ptr@V?$basic_node@Uno_node_info@graph@kmint@@@graph@kmint@@U?$default_delete@V?$basic_node@Uno_node_info@graph@kmint@@@graph@kmint@@@std@@@std@@@std@@V?$_Vector_val@U?$_Simple_types@V?$unique_ptr@V?$basic_node@Uno_node_info@graph@kmint@@@graph@kmint@@U?$default_delete@V?$basic_node@Uno_node_info@graph@kmint@@@graph@kmint@@@std@@@std@@@std@@@2@$00@std@@QEAAAEAV?$allocator@V?$unique_ptr@V?$basic_node@Uno_node_info@graph@kmint@@@graph@kmint@@U?$default_delete@V?$basic_node@Uno_node_info@graph@kmint@@@graph@kmint@@@std@@@std@@@2@XZ
	?_Get_first@?$_Compressed_pair@V?$allocator@V?$unique_ptr@V?$basic_node@Uno_node_info@graph@kmint@@@graph@kmint@@U?$default_delete@V?$basic_node@Uno_node_info@graph@kmint@@@graph@kmint@@@std@@@std@@@std@@V?$_Vector_val@U?$_Simple_types@V?$unique_ptr@V?$basic_node@Uno_node_info@graph@kmint@@@graph@kmint@@U?$default_delete@V?$basic_node@Uno_node_info@graph@kmint@@@graph@kmint@@@std@@@std@@@std@@@2@$00@std@@QEBAAEBV?$allocator@V?$unique_ptr@V?$basic_node@Uno_node_info@graph@kmint@@@graph@kmint@@U?$default_delete@V?$basic_node@Uno_node_info@graph@kmint@@@graph@kmint@@@std@@@std@@@2@XZ
	?_Get_first@?$_Compressed_pair@V?$allocator@V?$unique_ptr@Vactor@play@kmint@@U?$default_delete@Vactor@play@kmint@@@std@@@std@@@std@@V?$_Vector_val@U?$_Simple_types@V?$unique_ptr@Vactor@play@kmint@@U?$default_delete@Vactor@play@kmint@@@std@@@std@@@std@@@2@$00@std@@QEAAAEAV?$allocator@V?$unique_ptr@Vactor@play@kmint@@U?$default_delete@Vactor@play@kmint@@@std@@@std@@@2@XZ
	?_Get_first@?$_Compressed_pair@V?$destroyer@USDL_Renderer@@@sdl@ui@kmint@@PEAUSDL_Renderer@@$00@std@@QEAAAEAV?$destroyer@USDL_Renderer@@@sdl@ui@kmint@@XZ
	?_Get_first@?$_Compressed_pair@V?$destroyer@USDL_Surface@@@sdl@ui@kmint@@PEAUSDL_Surface@@$00@std@@QEAAAEAV?$destroyer@USDL_Surface@@@sdl@ui@kmint@@XZ
	?_Get_first@?$_Compressed_pair@V?$destroyer@USDL_Texture@@@sdl@ui@kmint@@PEAUSDL_Texture@@$00@std@@QEAAAEAV?$destroyer@USDL_Texture@@@sdl@ui@kmint@@XZ
	?_Get_first@?$_Compressed_pair@V?$destroyer@USDL_Window@@@sdl@ui@kmint@@PEAUSDL_Window@@$00@std@@QEAAAEAV?$destroyer@USDL_Window@@@sdl@ui@kmint@@XZ
	?_Get_max_bucket_size@?$_Uhash_compare@DU?$hash@D@std@@U?$equal_to@D@2@@std@@QEAAAEAMXZ
	?_Get_max_bucket_size@?$_Uhash_compare@DU?$hash@D@std@@U?$equal_to@D@2@@std@@QEBAAEBMXZ
	?_Get_scary@?$_Tree@V?$_Tmap_traits@DUtile_info@map@kmint@@U?$less@D@std@@V?$allocator@U?$pair@$$CBDUtile_info@map@kmint@@@std@@@5@$0A@@std@@@std@@IEAAPEAV?$_Tree_val@U?$_Tree_simple_types@U?$pair@$$CBDUtile_info@map@kmint@@@std@@@std@@@2@XZ
	?_Get_scary@?$_Tree@V?$_Tmap_traits@DUtile_info@map@kmint@@U?$less@D@std@@V?$allocator@U?$pair@$$CBDUtile_info@map@kmint@@@std@@@5@$0A@@std@@@std@@IEBAPEBV?$_Tree_val@U?$_Tree_simple_types@U?$pair@$$CBDUtile_info@map@kmint@@@std@@@std@@@2@XZ
	?_Get_scary@?$_Tree@V?$_Tmap_traits@V?$basic_string@DU?$char_traits@D@std@@V?$allocator@D@2@@std@@Vtexture@sdl@ui@kmint@@U?$less@V?$basic_string@DU?$char_traits@D@std@@V?$allocator@D@2@@std@@@2@V?$allocator@U?$pair@$$CBV?$basic_string@DU?$char_traits@D@std@@V?$allocator@D@2@@std@@Vtexture@sdl@ui@kmint@@@std@@@2@$0A@@std@@@std@@IEAAPEAV?$_Tree_val@U?$_Tree_simple_types@U?$pair@$$CBV?$basic_string@DU?$char_traits@D@std@@V?$allocator@D@2@@std@@Vtexture@sdl@ui@kmint@@@std@@@std@@@2@XZ
	?_Get_scary@?$_Tree@V?$_Tmap_traits@V?$basic_string@DU?$char_traits@D@std@@V?$allocator@D@2@@std@@Vtexture@sdl@ui@kmint@@U?$less@V?$basic_string@DU?$char_traits@D@std@@V?$allocator@D@2@@std@@@2@V?$allocator@U?$pair@$$CBV?$basic_string@DU?$char_traits@D@std@@V?$allocator@D@2@@std@@Vtexture@sdl@ui@kmint@@@std@@@2@$0A@@std@@@std@@IEBAPEBV?$_Tree_val@U?$_Tree_simple_types@U?$pair@$$CBV?$basic_string@DU?$char_traits@D@std@@V?$allocator@D@2@@std@@Vtexture@sdl@ui@kmint@@@std@@@std@@@2@XZ
	?_Getal@?$_Tree@V?$_Tmap_traits@DUtile_info@map@kmint@@U?$less@D@std@@V?$allocator@U?$pair@$$CBDUtile_info@map@kmint@@@std@@@5@$0A@@std@@@std@@IEAAAEAV?$allocator@U?$_Tree_node@U?$pair@$$CBDUtile_info@map@kmint@@@std@@PEAX@std@@@2@XZ
	?_Getal@?$_Tree@V?$_Tmap_traits@DUtile_info@map@kmint@@U?$less@D@std@@V?$allocator@U?$pair@$$CBDUtile_info@map@kmint@@@std@@@5@$0A@@std@@@std@@IEBAAEBV?$allocator@U?$_Tree_node@U?$pair@$$CBDUtile_info@map@kmint@@@std@@PEAX@std@@@2@XZ
	?_Getal@?$_Tree@V?$_Tmap_traits@V?$basic_string@DU?$char_traits@D@std@@V?$allocator@D@2@@std@@Vtexture@sdl@ui@kmint@@U?$less@V?$basic_string@DU?$char_traits@D@std@@V?$allocator@D@2@@std@@@2@V?$allocator@U?$pair@$$CBV?$basic_string@DU?$char_traits@D@std@@V?$allocator@D@2@@std@@Vtexture@sdl@ui@kmint@@@std@@@2@$0A@@std@@@std@@IEAAAEAV?$allocator@U?$_Tree_node@U?$pair@$$CBV?$basic_string@DU?$char_traits@D@std@@V?$allocator@D@2@@std@@Vtexture@sdl@ui@kmint@@@std@@PEAX@std@@@2@XZ
	?_Getal@?$_Tree@V?$_Tmap_traits@V?$basic_string@DU?$char_traits@D@std@@V?$allocator@D@2@@std@@Vtexture@sdl@ui@kmint@@U?$less@V?$basic_string@DU?$char_traits@D@std@@V?$allocator@D@2@@std@@@2@V?$allocator@U?$pair@$$CBV?$basic_string@DU?$char_traits@D@std@@V?$allocator@D@2@@std@@Vtexture@sdl@ui@kmint@@@std@@@2@$0A@@std@@@std@@IEBAAEBV?$allocator@U?$_Tree_node@U?$pair@$$CBV?$basic_string@DU?$char_traits@D@std@@V?$allocator@D@2@@std@@Vtexture@sdl@ui@kmint@@@std@@PEAX@std@@@2@XZ
	?_Getal@?$basic_string@DU?$char_traits@D@std@@V?$allocator@D@2@@std@@AEAAAEAV?$allocator@D@2@XZ
	?_Getal@?$basic_string@DU?$char_traits@D@std@@V?$allocator@D@2@@std@@AEBAAEBV?$allocator@D@2@XZ
	?_Getal@?$list@U?$pair@$$CBDV?$vector@PEAV?$basic_node@Umap_node_info@map@kmint@@@graph@kmint@@V?$allocator@PEAV?$basic_node@Umap_node_info@map@kmint@@@graph@kmint@@@std@@@std@@@std@@V?$allocator@U?$pair@$$CBDV?$vector@PEAV?$basic_node@Umap_node_info@map@kmint@@@graph@kmint@@V?$allocator@PEAV?$basic_node@Umap_node_info@map@kmint@@@graph@kmint@@@std@@@std@@@std@@@2@@std@@AEAAAEAV?$allocator@U?$_List_node@U?$pair@$$CBDV?$vector@PEAV?$basic_node@Umap_node_info@map@kmint@@@graph@kmint@@V?$allocator@PEAV?$basic_node@Umap_node_info@map@kmint@@@graph@kmint@@@std@@@std@@@std@@PEAX@std@@@2@XZ
	?_Getal@?$list@U?$pair@$$CBDV?$vector@PEAV?$basic_node@Umap_node_info@map@kmint@@@graph@kmint@@V?$allocator@PEAV?$basic_node@Umap_node_info@map@kmint@@@graph@kmint@@@std@@@std@@@std@@V?$allocator@U?$pair@$$CBDV?$vector@PEAV?$basic_node@Umap_node_info@map@kmint@@@graph@kmint@@V?$allocator@PEAV?$basic_node@Umap_node_info@map@kmint@@@graph@kmint@@@std@@@std@@@std@@@2@@std@@AEBAAEBV?$allocator@U?$_List_node@U?$pair@$$CBDV?$vector@PEAV?$basic_node@Umap_node_info@map@kmint@@@graph@kmint@@V?$allocator@PEAV?$basic_node@Umap_node_info@map@kmint@@@graph@kmint@@@std@@@std@@@std@@PEAX@std@@@2@XZ
	?_Getal@?$vector@DV?$allocator@D@std@@@std@@AEAAAEAV?$allocator@D@2@XZ
	?_Getal@?$vector@DV?$allocator@D@std@@@std@@AEBAAEBV?$allocator@D@2@XZ
	?_Getal@?$vector@HV?$allocator@H@std@@@std@@AEAAAEAV?$allocator@H@2@XZ
	?_Getal@?$vector@HV?$allocator@H@std@@@std@@AEBAAEBV?$allocator@H@2@XZ
	?_Getal@?$vector@PEAV?$basic_node@Umap_node_info@map@kmint@@@graph@kmint@@V?$allocator@PEAV?$basic_node@Umap_node_info@map@kmint@@@graph@kmint@@@std@@@std@@AEAAAEAV?$allocator@PEAV?$basic_node@Umap_node_info@map@kmint@@@graph@kmint@@@2@XZ
	?_Getal@?$vector@PEAV?$basic_node@Umap_node_info@map@kmint@@@graph@kmint@@V?$allocator@PEAV?$basic_node@Umap_node_info@map@kmint@@@graph@kmint@@@std@@@std@@AEBAAEBV?$allocator@PEAV?$basic_node@Umap_node_info@map@kmint@@@graph@kmint@@@2@XZ
	?_Getal@?$vector@PEAVactor@play@kmint@@V?$allocator@PEAVactor@play@kmint@@@std@@@std@@AEAAAEAV?$allocator@PEAVactor@play@kmint@@@2@XZ
	?_Getal@?$vector@PEAVactor@play@kmint@@V?$allocator@PEAVactor@play@kmint@@@std@@@std@@AEBAAEBV?$allocator@PEAVactor@play@kmint@@@2@XZ
	?_Getal@?$vector@V?$unique_ptr@V?$basic_edge@Umap_node_info@map@kmint@@@graph@kmint@@U?$default_delete@V?$basic_edge@Umap_node_info@map@kmint@@@graph@kmint@@@std@@@std@@V?$allocator@V?$unique_ptr@V?$basic_edge@Umap_node_info@map@kmint@@@graph@kmint@@U?$default_delete@V?$basic_edge@Umap_node_info@map@kmint@@@graph@kmint@@@std@@@std@@@2@@std@@AEAAAEAV?$allocator@V?$unique_ptr@V?$basic_edge@Umap_node_info@map@kmint@@@graph@kmint@@U?$default_delete@V?$basic_edge@Umap_node_info@map@kmint@@@graph@kmint@@@std@@@std@@@2@XZ
	?_Getal@?$vector@V?$unique_ptr@V?$basic_edge@Umap_node_info@map@kmint@@@graph@kmint@@U?$default_delete@V?$basic_edge@Umap_node_info@map@kmint@@@graph@kmint@@@std@@@std@@V?$allocator@V?$unique_ptr@V?$basic_edge@Umap_node_info@map@kmint@@@graph@kmint@@U?$default_delete@V?$basic_edge@Umap_node_info@map@kmint@@@graph@kmint@@@std@@@std@@@2@@std@@AEBAAEBV?$allocator@V?$unique_ptr@V?$basic_edge@Umap_node_info@map@kmint@@@graph@kmint@@U?$default_delete@V?$basic_edge@Umap_node_info@map@kmint@@@graph@kmint@@@std@@@std@@@2@XZ
	?_Getal@?$vector@V?$unique_ptr@V?$basic_edge@Uno_node_info@graph@kmint@@@graph@kmint@@U?$default_delete@V?$basic_edge@Uno_node_info@graph@kmint@@@graph@kmint@@@std@@@std@@V?$allocator@V?$unique_ptr@V?$basic_edge@Uno_node_info@graph@kmint@@@graph@kmint@@U?$default_delete@V?$basic_edge@Uno_node_info@graph@kmint@@@graph@kmint@@@std@@@std@@@2@@std@@AEAAAEAV?$allocator@V?$unique_ptr@V?$basic_edge@Uno_node_info@graph@kmint@@@graph@kmint@@U?$default_delete@V?$basic_edge@Uno_node_info@graph@kmint@@@graph@kmint@@@std@@@std@@@2@XZ
	?_Getal@?$vector@V?$unique_ptr@V?$basic_edge@Uno_node_info@graph@kmint@@@graph@kmint@@U?$default_delete@V?$basic_edge@Uno_node_info@graph@kmint@@@graph@kmint@@@std@@@std@@V?$allocator@V?$unique_ptr@V?$basic_edge@Uno_node_info@graph@kmint@@@graph@kmint@@U?$default_delete@V?$basic_edge@Uno_node_info@graph@kmint@@@graph@kmint@@@std@@@std@@@2@@std@@AEBAAEBV?$allocator@V?$unique_ptr@V?$basic_edge@Uno_node_info@graph@kmint@@@graph@kmint@@U?$default_delete@V?$basic_edge@Uno_node_info@graph@kmint@@@graph@kmint@@@std@@@std@@@2@XZ
	?_Getal@?$vector@V?$unique_ptr@V?$basic_node@Umap_node_info@map@kmint@@@graph@kmint@@U?$default_delete@V?$basic_node@Umap_node_info@map@kmint@@@graph@kmint@@@std@@@std@@V?$allocator@V?$unique_ptr@V?$basic_node@Umap_node_info@map@kmint@@@graph@kmint@@U?$default_delete@V?$basic_node@Umap_node_info@map@kmint@@@graph@kmint@@@std@@@std@@@2@@std@@AEAAAEAV?$allocator@V?$unique_ptr@V?$basic_node@Umap_node_info@map@kmint@@@graph@kmint@@U?$default_delete@V?$basic_node@Umap_node_info@map@kmint@@@graph@kmint@@@std@@@std@@@2@XZ
	?_Getal@?$vector@V?$unique_ptr@V?$basic_node@Umap_node_info@map@kmint@@@graph@kmint@@U?$default_delete@V?$basic_node@Umap_node_info@map@kmint@@@graph@kmint@@@std@@@std@@V?$allocator@V?$unique_ptr@V?$basic_node@Umap_node_info@map@kmint@@@graph@kmint@@U?$default_delete@V?$basic_node@Umap_node_info@map@kmint@@@graph@kmint@@@std@@@std@@@2@@std@@AEBAAEBV?$allocator@V?$unique_ptr@V?$basic_node@Umap_node_info@map@kmint@@@graph@kmint@@U?$default_delete@V?$basic_node@Umap_node_info@map@kmint@@@graph@kmint@@@std@@@std@@@2@XZ
	?_Getal@?$vector@V?$unique_ptr@V?$basic_node@Uno_node_info@graph@kmint@@@graph@kmint@@U?$default_delete@V?$basic_node@Uno_node_info@graph@kmint@@@graph@kmint@@@std@@@std@@V?$allocator@V?$unique_ptr@V?$basic_node@Uno_node_info@graph@kmint@@@graph@kmint@@U?$default_delete@V?$basic_node@Uno_node_info@graph@kmint@@@graph@kmint@@@std@@@std@@@2@@std@@AEAAAEAV?$allocator@V?$unique_ptr@V?$basic_node@Uno_node_info@graph@kmint@@@graph@kmint@@U?$default_delete@V?$basic_node@Uno_node_info@graph@kmint@@@graph@kmint@@@std@@@std@@@2@XZ
	?_Getal@?$vector@V?$unique_ptr@V?$basic_node@Uno_node_info@graph@kmint@@@graph@kmint@@U?$default_delete@V?$basic_node@Uno_node_info@graph@kmint@@@graph@kmint@@@std@@@std@@V?$allocator@V?$unique_ptr@V?$basic_node@Uno_node_info@graph@kmint@@@graph@kmint@@U?$default_delete@V?$basic_node@Uno_node_info@graph@kmint@@@graph@kmint@@@std@@@std@@@2@@std@@AEBAAEBV?$allocator@V?$unique_ptr@V?$basic_node@Uno_node_info@graph@kmint@@@graph@kmint@@U?$default_delete@V?$basic_node@Uno_node_info@graph@kmint@@@graph@kmint@@@std@@@std@@@2@XZ
	?_Getal@?$vector@V?$unique_ptr@Vactor@play@kmint@@U?$default_delete@Vactor@play@kmint@@@std@@@std@@V?$allocator@V?$unique_ptr@Vactor@play@kmint@@U?$default_delete@Vactor@play@kmint@@@std@@@std@@@2@@std@@AEAAAEAV?$allocator@V?$unique_ptr@Vactor@play@kmint@@U?$default_delete@Vactor@play@kmint@@@std@@@std@@@2@XZ
	?_Getcomp@?$_Tree@V?$_Tmap_traits@DUtile_info@map@kmint@@U?$less@D@std@@V?$allocator@U?$pair@$$CBDUtile_info@map@kmint@@@std@@@5@$0A@@std@@@std@@IEBAAEBU?$less@D@2@XZ
	?_Getcomp@?$_Tree@V?$_Tmap_traits@V?$basic_string@DU?$char_traits@D@std@@V?$allocator@D@2@@std@@Vtexture@sdl@ui@kmint@@U?$less@V?$basic_string@DU?$char_traits@D@std@@V?$allocator@D@2@@std@@@2@V?$allocator@U?$pair@$$CBV?$basic_string@DU?$char_traits@D@std@@V?$allocator@D@2@@std@@Vtexture@sdl@ui@kmint@@@std@@@2@$0A@@std@@@std@@IEBAAEBU?$less@V?$basic_string@DU?$char_traits@D@std@@V?$allocator@D@2@@std@@@2@XZ
	?_Getcont@_Iterator_base12@std@@QEBAPEBU_Container_base12@2@XZ
	?_Getfacet@locale@std@@QEBAPEBVfacet@12@_K@Z
	?_Getimpl@?$_Func_class@AEAV?$basic_node@Umap_node_info@map@kmint@@@graph@kmint@@AEAV?$unique_ptr@V?$basic_node@Umap_node_info@map@kmint@@@graph@kmint@@U?$default_delete@V?$basic_node@Umap_node_info@map@kmint@@@graph@kmint@@@std@@@std@@@std@@AEBAPEAV?$_Func_base@AEAV?$basic_node@Umap_node_info@map@kmint@@@graph@kmint@@AEAV?$unique_ptr@V?$basic_node@Umap_node_info@map@kmint@@@graph@kmint@@U?$default_delete@V?$basic_node@Umap_node_info@map@kmint@@@graph@kmint@@@std@@@std@@@2@XZ
	?_Getimpl@?$_Func_class@AEAVactor@play@kmint@@AEAV?$unique_ptr@Vactor@play@kmint@@U?$default_delete@Vactor@play@kmint@@@std@@@std@@@std@@AEBAPEAV?$_Func_base@AEAVactor@play@kmint@@AEAV?$unique_ptr@Vactor@play@kmint@@U?$default_delete@Vactor@play@kmint@@@std@@@std@@@2@XZ
	?_Getimpl@?$_Func_class@AEBVactor@play@kmint@@AEBV?$unique_ptr@Vactor@play@kmint@@U?$default_delete@Vactor@play@kmint@@@std@@@std@@@std@@AEBAPEAV?$_Func_base@AEBVactor@play@kmint@@AEBV?$unique_ptr@Vactor@play@kmint@@U?$default_delete@Vactor@play@kmint@@@std@@@std@@@2@XZ
	?_Getstate@?$basic_stringbuf@DU?$char_traits@D@std@@V?$allocator@D@2@@std@@CAHH@Z
	?_Getval@?$istream_iterator@DDU?$char_traits@D@std@@_J@std@@AEAAXXZ
	?_Init@?$basic_stringbuf@DU?$char_traits@D@std@@V?$allocator@D@2@@std@@IEAAXPEBD_KH@Z
	?_Init@param_type@?$uniform_int@H@std@@QEAAXHH@Z
	?_Init@param_type@?$uniform_real@M@std@@QEAAXMM@Z
	?_Insert_new_node_before@?$_Hash@V?$_Umap_traits@DV?$vector@PEAV?$basic_node@Umap_node_info@map@kmint@@@graph@kmint@@V?$allocator@PEAV?$basic_node@Umap_node_info@map@kmint@@@graph@kmint@@@std@@@std@@V?$_Uhash_compare@DU?$hash@D@std@@U?$equal_to@D@2@@2@V?$allocator@U?$pair@$$CBDV?$vector@PEAV?$basic_node@Umap_node_info@map@kmint@@@graph@kmint@@V?$allocator@PEAV?$basic_node@Umap_node_info@map@kmint@@@graph@kmint@@@std@@@std@@@std@@@2@$0A@@std@@@std@@IEAAPEAU?$_List_node@U?$pair@$$CBDV?$vector@PEAV?$basic_node@Umap_node_info@map@kmint@@@graph@kmint@@V?$allocator@PEAV?$basic_node@Umap_node_info@map@kmint@@@graph@kmint@@@std@@@std@@@std@@PEAX@2@_KQEAU32@1@Z
	?_Insert_node@?$_Tree_val@U?$_Tree_simple_types@U?$pair@$$CBDUtile_info@map@kmint@@@std@@@std@@@std@@QEAAPEAU?$_Tree_node@U?$pair@$$CBDUtile_info@map@kmint@@@std@@PEAX@2@U?$_Tree_id@PEAU?$_Tree_node@U?$pair@$$CBDUtile_info@map@kmint@@@std@@PEAX@std@@@2@QEAU32@@Z
	?_Insert_node@?$_Tree_val@U?$_Tree_simple_types@U?$pair@$$CBV?$basic_string@DU?$char_traits@D@std@@V?$allocator@D@2@@std@@Vtexture@sdl@ui@kmint@@@std@@@std@@@std@@QEAAPEAU?$_Tree_node@U?$pair@$$CBV?$basic_string@DU?$char_traits@D@std@@V?$allocator@D@2@@std@@Vtexture@sdl@ui@kmint@@@std@@PEAX@2@U?$_Tree_id@PEAU?$_Tree_node@U?$pair@$$CBV?$basic_string@DU?$char_traits@D@std@@V?$allocator@D@2@@std@@Vtexture@sdl@ui@kmint@@@std@@PEAX@std@@@2@QEAU32@@Z
	?_Large_string_engaged@?$_String_val@U?$_Simple_types@D@std@@@std@@QEBA_NXZ
	?_Local@?$_Func_class@AEAV?$basic_node@Umap_node_info@map@kmint@@@graph@kmint@@AEAV?$unique_ptr@V?$basic_node@Umap_node_info@map@kmint@@@graph@kmint@@U?$default_delete@V?$basic_node@Umap_node_info@map@kmint@@@graph@kmint@@@std@@@std@@@std@@AEBA_NXZ
	?_Local@?$_Func_class@AEAVactor@play@kmint@@AEAV?$unique_ptr@Vactor@play@kmint@@U?$default_delete@Vactor@play@kmint@@@std@@@std@@@std@@AEBA_NXZ
	?_Local@?$_Func_class@AEBVactor@play@kmint@@AEBV?$unique_ptr@Vactor@play@kmint@@U?$default_delete@Vactor@play@kmint@@@std@@@std@@@std@@AEBA_NXZ
	?_Lrotate@?$_Tree_val@U?$_Tree_simple_types@U?$pair@$$CBDUtile_info@map@kmint@@@std@@@std@@@std@@QEAAXPEAU?$_Tree_node@U?$pair@$$CBDUtile_info@map@kmint@@@std@@PEAX@2@@Z
	?_Lrotate@?$_Tree_val@U?$_Tree_simple_types@U?$pair@$$CBV?$basic_string@DU?$char_traits@D@std@@V?$allocator@D@2@@std@@Vtexture@sdl@ui@kmint@@@std@@@std@@@std@@QEAAXPEAU?$_Tree_node@U?$pair@$$CBV?$basic_string@DU?$char_traits@D@std@@V?$allocator@D@2@@std@@Vtexture@sdl@ui@kmint@@@std@@PEAX@2@@Z
	?_Max@?$_Tree_val@U?$_Tree_simple_types@U?$pair@$$CBDUtile_info@map@kmint@@@std@@@std@@@std@@SAPEAU?$_Tree_node@U?$pair@$$CBDUtile_info@map@kmint@@@std@@PEAX@2@PEAU32@@Z
	?_Max_bucket_size@?$_Hash@V?$_Umap_traits@DV?$vector@PEAV?$basic_node@Umap_node_info@map@kmint@@@graph@kmint@@V?$allocator@PEAV?$basic_node@Umap_node_info@map@kmint@@@graph@kmint@@@std@@@std@@V?$_Uhash_compare@DU?$hash@D@std@@U?$equal_to@D@2@@2@V?$allocator@U?$pair@$$CBDV?$vector@PEAV?$basic_node@Umap_node_info@map@kmint@@@graph@kmint@@V?$allocator@PEAV?$basic_node@Umap_node_info@map@kmint@@@graph@kmint@@@std@@@std@@@std@@@2@$0A@@std@@@std@@IEAAAEAMXZ
	?_Max_bucket_size@?$_Hash@V?$_Umap_traits@DV?$vector@PEAV?$basic_node@Umap_node_info@map@kmint@@@graph@kmint@@V?$allocator@PEAV?$basic_node@Umap_node_info@map@kmint@@@graph@kmint@@@std@@@std@@V?$_Uhash_compare@DU?$hash@D@std@@U?$equal_to@D@2@@2@V?$allocator@U?$pair@$$CBDV?$vector@PEAV?$basic_node@Umap_node_info@map@kmint@@@graph@kmint@@V?$allocator@PEAV?$basic_node@Umap_node_info@map@kmint@@@graph@kmint@@@std@@@std@@@std@@@2@$0A@@std@@@std@@IEBAAEBMXZ
	?_Memcpy_val_from@?$basic_string@DU?$char_traits@D@std@@V?$allocator@D@2@@std@@AEAAXAEBV12@@Z
	?_Min@?$_Tree_val@U?$_Tree_simple_types@U?$pair@$$CBDUtile_info@map@kmint@@@std@@@std@@@std@@SAPEAU?$_Tree_node@U?$pair@$$CBDUtile_info@map@kmint@@@std@@PEAX@2@PEAU32@@Z
	?_Min_load_factor_buckets@?$_Hash@V?$_Umap_traits@DV?$vector@PEAV?$basic_node@Umap_node_info@map@kmint@@@graph@kmint@@V?$allocator@PEAV?$basic_node@Umap_node_info@map@kmint@@@graph@kmint@@@std@@@std@@V?$_Uhash_compare@DU?$hash@D@std@@U?$equal_to@D@2@@2@V?$allocator@U?$pair@$$CBDV?$vector@PEAV?$basic_node@Umap_node_info@map@kmint@@@graph@kmint@@V?$allocator@PEAV?$basic_node@Umap_node_info@map@kmint@@@graph@kmint@@@std@@@std@@@std@@@2@$0A@@std@@@std@@IEBA_K_K@Z
	?_Move@?$_Func_impl_no_alloc@P6AAEAV?$basic_node@Umap_node_info@map@kmint@@@graph@kmint@@AEBV?$unique_ptr@V?$basic_node@Umap_node_info@map@kmint@@@graph@kmint@@U?$default_delete@V?$basic_node@Umap_node_info@map@kmint@@@graph@kmint@@@std@@@std@@@ZAEAV123@AEAV45@@std@@EEAAPEAV?$_Func_base@AEAV?$basic_node@Umap_node_info@map@kmint@@@graph@kmint@@AEAV?$unique_ptr@V?$basic_node@Umap_node_info@map@kmint@@@graph@kmint@@U?$default_delete@V?$basic_node@Umap_node_info@map@kmint@@@graph@kmint@@@std@@@std@@@2@PEAX@Z
	?_Move@?$_Func_impl_no_alloc@P6AAEAVactor@play@kmint@@AEBV?$unique_ptr@Vactor@play@kmint@@U?$default_delete@Vactor@play@kmint@@@std@@@std@@@ZAEAV123@AEAV45@@std@@EEAAPEAV?$_Func_base@AEAVactor@play@kmint@@AEAV?$unique_ptr@Vactor@play@kmint@@U?$default_delete@Vactor@play@kmint@@@std@@@std@@@2@PEAX@Z
	?_Move@?$_Func_impl_no_alloc@P6AAEBVactor@play@kmint@@AEBV?$unique_ptr@Vactor@play@kmint@@U?$default_delete@Vactor@play@kmint@@@std@@@std@@@ZAEBV123@AEBV45@@std@@EEAAPEAV?$_Func_base@AEBVactor@play@kmint@@AEBV?$unique_ptr@Vactor@play@kmint@@U?$default_delete@Vactor@play@kmint@@@std@@@std@@@2@PEAX@Z
	?_Move_assign@?$basic_string@DU?$char_traits@D@std@@V?$allocator@D@2@@std@@AEAAXAEAV12@U_Equal_allocators@2@@Z
	?_Move_construct@?$vector@V?$unique_ptr@V?$basic_node@Umap_node_info@map@kmint@@@graph@kmint@@U?$default_delete@V?$basic_node@Umap_node_info@map@kmint@@@graph@kmint@@@std@@@std@@V?$allocator@V?$unique_ptr@V?$basic_node@Umap_node_info@map@kmint@@@graph@kmint@@U?$default_delete@V?$basic_node@Umap_node_info@map@kmint@@@graph@kmint@@@std@@@std@@@2@@std@@AEAAXAEAV12@U?$integral_constant@_N$00@2@@Z
	?_Move_construct@?$vector@V?$unique_ptr@V?$basic_node@Uno_node_info@graph@kmint@@@graph@kmint@@U?$default_delete@V?$basic_node@Uno_node_info@graph@kmint@@@graph@kmint@@@std@@@std@@V?$allocator@V?$unique_ptr@V?$basic_node@Uno_node_info@graph@kmint@@@graph@kmint@@U?$default_delete@V?$basic_node@Uno_node_info@graph@kmint@@@graph@kmint@@@std@@@std@@@2@@std@@AEAAXAEAV12@U?$integral_constant@_N$00@2@@Z
	?_Myptr@?$_String_val@U?$_Simple_types@D@std@@@std@@QEAAPEADXZ
	?_Myptr@?$_String_val@U?$_Simple_types@D@std@@@std@@QEBAPEBDXZ
	?_Orphan_all@_Container_base12@std@@QEAAXXZ
	?_Orphan_me@_Iterator_base12@std@@QEAAXXZ
	?_Orphan_non_end@?$_List_val@U?$_List_simple_types@U?$pair@$$CBDV?$vector@PEAV?$basic_node@Umap_node_info@map@kmint@@@graph@kmint@@V?$allocator@PEAV?$basic_node@Umap_node_info@map@kmint@@@graph@kmint@@@std@@@std@@@std@@@std@@@std@@QEAAXXZ
	?_Orphan_ptr@?$_Tree_val@U?$_Tree_simple_types@U?$pair@$$CBDUtile_info@map@kmint@@@std@@@std@@@std@@QEAAXQEAU?$_Tree_node@U?$pair@$$CBDUtile_info@map@kmint@@@std@@PEAX@2@@Z
	?_Orphan_range@?$vector@DV?$allocator@D@std@@@std@@AEBAXPEAD0@Z
	?_Orphan_range@?$vector@PEAV?$basic_node@Umap_node_info@map@kmint@@@graph@kmint@@V?$allocator@PEAV?$basic_node@Umap_node_info@map@kmint@@@graph@kmint@@@std@@@std@@AEBAXPEAPEAV?$basic_node@Umap_node_info@map@kmint@@@graph@kmint@@0@Z
	?_Orphan_range@?$vector@PEAVactor@play@kmint@@V?$allocator@PEAVactor@play@kmint@@@std@@@std@@AEBAXPEAPEAVactor@play@kmint@@0@Z
	?_Orphan_range@?$vector@V?$unique_ptr@V?$basic_edge@Umap_node_info@map@kmint@@@graph@kmint@@U?$default_delete@V?$basic_edge@Umap_node_info@map@kmint@@@graph@kmint@@@std@@@std@@V?$allocator@V?$unique_ptr@V?$basic_edge@Umap_node_info@map@kmint@@@graph@kmint@@U?$default_delete@V?$basic_edge@Umap_node_info@map@kmint@@@graph@kmint@@@std@@@std@@@2@@std@@AEBAXPEAV?$unique_ptr@V?$basic_edge@Umap_node_info@map@kmint@@@graph@kmint@@U?$default_delete@V?$basic_edge@Umap_node_info@map@kmint@@@graph@kmint@@@std@@@2@0@Z
	?_Orphan_range@?$vector@V?$unique_ptr@V?$basic_edge@Uno_node_info@graph@kmint@@@graph@kmint@@U?$default_delete@V?$basic_edge@Uno_node_info@graph@kmint@@@graph@kmint@@@std@@@std@@V?$allocator@V?$unique_ptr@V?$basic_edge@Uno_node_info@graph@kmint@@@graph@kmint@@U?$default_delete@V?$basic_edge@Uno_node_info@graph@kmint@@@graph@kmint@@@std@@@std@@@2@@std@@AEBAXPEAV?$unique_ptr@V?$basic_edge@Uno_node_info@graph@kmint@@@graph@kmint@@U?$default_delete@V?$basic_edge@Uno_node_info@graph@kmint@@@graph@kmint@@@std@@@2@0@Z
	?_Orphan_range@?$vector@V?$unique_ptr@V?$basic_node@Umap_node_info@map@kmint@@@graph@kmint@@U?$default_delete@V?$basic_node@Umap_node_info@map@kmint@@@graph@kmint@@@std@@@std@@V?$allocator@V?$unique_ptr@V?$basic_node@Umap_node_info@map@kmint@@@graph@kmint@@U?$default_delete@V?$basic_node@Umap_node_info@map@kmint@@@graph@kmint@@@std@@@std@@@2@@std@@AEBAXPEAV?$unique_ptr@V?$basic_node@Umap_node_info@map@kmint@@@graph@kmint@@U?$default_delete@V?$basic_node@Umap_node_info@map@kmint@@@graph@kmint@@@std@@@2@0@Z
	?_Orphan_range@?$vector@V?$unique_ptr@V?$basic_node@Uno_node_info@graph@kmint@@@graph@kmint@@U?$default_delete@V?$basic_node@Uno_node_info@graph@kmint@@@graph@kmint@@@std@@@std@@V?$allocator@V?$unique_ptr@V?$basic_node@Uno_node_info@graph@kmint@@@graph@kmint@@U?$default_delete@V?$basic_node@Uno_node_info@graph@kmint@@@graph@kmint@@@std@@@std@@@2@@std@@AEBAXPEAV?$unique_ptr@V?$basic_node@Uno_node_info@graph@kmint@@@graph@kmint@@U?$default_delete@V?$basic_node@Uno_node_info@graph@kmint@@@graph@kmint@@@std@@@2@0@Z
	?_Orphan_range@?$vector@V?$unique_ptr@Vactor@play@kmint@@U?$default_delete@Vactor@play@kmint@@@std@@@std@@V?$allocator@V?$unique_ptr@Vactor@play@kmint@@U?$default_delete@Vactor@play@kmint@@@std@@@std@@@2@@std@@AEBAXPEAV?$unique_ptr@Vactor@play@kmint@@U?$default_delete@Vactor@play@kmint@@@std@@@2@0@Z
	?_Reallocate_exactly@?$vector@DV?$allocator@D@std@@@std@@AEAAX_K@Z
	?_Refill_lower@?$mersenne_twister@I$0CA@$0CHA@$0BIN@$0BP@$0JJAILANP@$0L@$06$0JNCMFGIA@$0P@$0OPMGAAAA@$0BC@@std@@IEAAXXZ
	?_Refill_upper@?$mersenne_twister@I$0CA@$0CHA@$0BIN@$0BP@$0JJAILANP@$0L@$06$0JNCMFGIA@$0P@$0OPMGAAAA@$0BC@@std@@IEAAXXZ
	?_Rehash_for_1@?$_Hash@V?$_Umap_traits@DV?$vector@PEAV?$basic_node@Umap_node_info@map@kmint@@@graph@kmint@@V?$allocator@PEAV?$basic_node@Umap_node_info@map@kmint@@@graph@kmint@@@std@@@std@@V?$_Uhash_compare@DU?$hash@D@std@@U?$equal_to@D@2@@2@V?$allocator@U?$pair@$$CBDV?$vector@PEAV?$basic_node@Umap_node_info@map@kmint@@@graph@kmint@@V?$allocator@PEAV?$basic_node@Umap_node_info@map@kmint@@@graph@kmint@@@std@@@std@@@std@@@2@$0A@@std@@@std@@IEAAXXZ
	?_Release@?$_Alloc_construct_ptr@V?$allocator@U?$_List_node@U?$pair@$$CBDV?$vector@PEAV?$basic_node@Umap_node_info@map@kmint@@@graph@kmint@@V?$allocator@PEAV?$basic_node@Umap_node_info@map@kmint@@@graph@kmint@@@std@@@std@@@std@@PEAX@std@@@std@@@std@@QEAAPEAU?$_List_node@U?$pair@$$CBDV?$vector@PEAV?$basic_node@Umap_node_info@map@kmint@@@graph@kmint@@V?$allocator@PEAV?$basic_node@Umap_node_info@map@kmint@@@graph@kmint@@@std@@@std@@@std@@PEAX@2@XZ
	?_Release@?$_Alloc_construct_ptr@V?$allocator@U?$_Tree_node@U?$pair@$$CBDUtile_info@map@kmint@@@std@@PEAX@std@@@std@@@std@@QEAAPEAU?$_Tree_node@U?$pair@$$CBDUtile_info@map@kmint@@@std@@PEAX@2@XZ
	?_Release@?$_Alloc_construct_ptr@V?$allocator@U?$_Tree_node@U?$pair@$$CBV?$basic_string@DU?$char_traits@D@std@@V?$allocator@D@2@@std@@Vtexture@sdl@ui@kmint@@@std@@PEAX@std@@@std@@@std@@QEAAPEAU?$_Tree_node@U?$pair@$$CBV?$basic_string@DU?$char_traits@D@std@@V?$allocator@D@2@@std@@Vtexture@sdl@ui@kmint@@@std@@PEAX@2@XZ
	?_Release@?$_Tree_head_scoped_ptr@V?$allocator@U?$_Tree_node@U?$pair@$$CBDUtile_info@map@kmint@@@std@@PEAX@std@@@std@@V?$_Tree_val@U?$_Tree_simple_types@U?$pair@$$CBDUtile_info@map@kmint@@@std@@@std@@@2@@std@@QEAAXXZ
	?_Release@?$_Uninitialized_backout@PEAV?$_List_unchecked_iterator@V?$_List_val@U?$_List_simple_types@U?$pair@$$CBDV?$vector@PEAV?$basic_node@Umap_node_info@map@kmint@@@graph@kmint@@V?$allocator@PEAV?$basic_node@Umap_node_info@map@kmint@@@graph@kmint@@@std@@@std@@@std@@@std@@@std@@@std@@@std@@QEAAPEAV?$_List_unchecked_iterator@V?$_List_val@U?$_List_simple_types@U?$pair@$$CBDV?$vector@PEAV?$basic_node@Umap_node_info@map@kmint@@@graph@kmint@@V?$allocator@PEAV?$basic_node@Umap_node_info@map@kmint@@@graph@kmint@@@std@@@std@@@std@@@std@@@std@@@2@XZ
	?_Release@?$_Uninitialized_backout_al@V?$allocator@H@std@@@std@@QEAAPEAHXZ
	?_Release@?$_Uninitialized_backout_al@V?$allocator@V?$unique_ptr@V?$basic_edge@Umap_node_info@map@kmint@@@graph@kmint@@U?$default_delete@V?$basic_edge@Umap_node_info@map@kmint@@@graph@kmint@@@std@@@std@@@std@@@std@@QEAAPEAV?$unique_ptr@V?$basic_edge@Umap_node_info@map@kmint@@@graph@kmint@@U?$default_delete@V?$basic_edge@Umap_node_info@map@kmint@@@graph@kmint@@@std@@@2@XZ
	?_Release@?$_Uninitialized_backout_al@V?$allocator@V?$unique_ptr@V?$basic_edge@Uno_node_info@graph@kmint@@@graph@kmint@@U?$default_delete@V?$basic_edge@Uno_node_info@graph@kmint@@@graph@kmint@@@std@@@std@@@std@@@std@@QEAAPEAV?$unique_ptr@V?$basic_edge@Uno_node_info@graph@kmint@@@graph@kmint@@U?$default_delete@V?$basic_edge@Uno_node_info@graph@kmint@@@graph@kmint@@@std@@@2@XZ
	?_Release@?$_Uninitialized_backout_al@V?$allocator@V?$unique_ptr@V?$basic_node@Umap_node_info@map@kmint@@@graph@kmint@@U?$default_delete@V?$basic_node@Umap_node_info@map@kmint@@@graph@kmint@@@std@@@std@@@std@@@std@@QEAAPEAV?$unique_ptr@V?$basic_node@Umap_node_info@map@kmint@@@graph@kmint@@U?$default_delete@V?$basic_node@Umap_node_info@map@kmint@@@graph@kmint@@@std@@@2@XZ
	?_Release@?$_Uninitialized_backout_al@V?$allocator@V?$unique_ptr@V?$basic_node@Uno_node_info@graph@kmint@@@graph@kmint@@U?$default_delete@V?$basic_node@Uno_node_info@graph@kmint@@@graph@kmint@@@std@@@std@@@std@@@std@@QEAAPEAV?$unique_ptr@V?$basic_node@Uno_node_info@graph@kmint@@@graph@kmint@@U?$default_delete@V?$basic_node@Uno_node_info@graph@kmint@@@graph@kmint@@@std@@@2@XZ
	?_Release@_Basic_container_proxy_ptr12@std@@QEAAXXZ
	?_Reset@?$_Variant_base@Ufree@?$quad_tree@$03@play@kmint@@Usaturated@234@@std@@QEAAXXZ
	?_Reset_copy@?$_Func_class@AEAV?$basic_node@Umap_node_info@map@kmint@@@graph@kmint@@AEAV?$unique_ptr@V?$basic_node@Umap_node_info@map@kmint@@@graph@kmint@@U?$default_delete@V?$basic_node@Umap_node_info@map@kmint@@@graph@kmint@@@std@@@std@@@std@@IEAAXAEBV12@@Z
	?_Reset_copy@?$_Func_class@AEAVactor@play@kmint@@AEAV?$unique_ptr@Vactor@play@kmint@@U?$default_delete@Vactor@play@kmint@@@std@@@std@@@std@@IEAAXAEBV12@@Z
	?_Reset_move@?$_Func_class@AEAV?$basic_node@Umap_node_info@map@kmint@@@graph@kmint@@AEAV?$unique_ptr@V?$basic_node@Umap_node_info@map@kmint@@@graph@kmint@@U?$default_delete@V?$basic_node@Umap_node_info@map@kmint@@@graph@kmint@@@std@@@std@@@std@@IEAAX$$QEAV12@@Z
	?_Reset_move@?$_Func_class@AEAVactor@play@kmint@@AEAV?$unique_ptr@Vactor@play@kmint@@U?$default_delete@Vactor@play@kmint@@@std@@@std@@@std@@IEAAX$$QEAV12@@Z
	?_Reset_move@?$_Func_class@AEBVactor@play@kmint@@AEBV?$unique_ptr@Vactor@play@kmint@@U?$default_delete@Vactor@play@kmint@@@std@@@std@@@std@@IEAAX$$QEAV12@@Z
	?_Rrotate@?$_Tree_val@U?$_Tree_simple_types@U?$pair@$$CBDUtile_info@map@kmint@@@std@@@std@@@std@@QEAAXPEAU?$_Tree_node@U?$pair@$$CBDUtile_info@map@kmint@@@std@@PEAX@2@@Z
	?_Rrotate@?$_Tree_val@U?$_Tree_simple_types@U?$pair@$$CBV?$basic_string@DU?$char_traits@D@std@@V?$allocator@D@2@@std@@Vtexture@sdl@ui@kmint@@@std@@@std@@@std@@QEAAXPEAU?$_Tree_node@U?$pair@$$CBV?$basic_string@DU?$char_traits@D@std@@V?$allocator@D@2@@std@@Vtexture@sdl@ui@kmint@@@std@@PEAX@2@@Z
	?_Seek_to@?$_Vector_const_iterator@V?$_Vector_val@U?$_Simple_types@V?$unique_ptr@Vactor@play@kmint@@U?$default_delete@Vactor@play@kmint@@@std@@@std@@@std@@@std@@@std@@QEAAXPEBV?$unique_ptr@Vactor@play@kmint@@U?$default_delete@Vactor@play@kmint@@@std@@@2@@Z
	?_Set@?$_Func_class@AEAV?$basic_node@Umap_node_info@map@kmint@@@graph@kmint@@AEAV?$unique_ptr@V?$basic_node@Umap_node_info@map@kmint@@@graph@kmint@@U?$default_delete@V?$basic_node@Umap_node_info@map@kmint@@@graph@kmint@@@std@@@std@@@std@@AEAAXPEAV?$_Func_base@AEAV?$basic_node@Umap_node_info@map@kmint@@@graph@kmint@@AEAV?$unique_ptr@V?$basic_node@Umap_node_info@map@kmint@@@graph@kmint@@U?$default_delete@V?$basic_node@Umap_node_info@map@kmint@@@graph@kmint@@@std@@@std@@@2@@Z
	?_Set@?$_Func_class@AEAVactor@play@kmint@@AEAV?$unique_ptr@Vactor@play@kmint@@U?$default_delete@Vactor@play@kmint@@@std@@@std@@@std@@AEAAXPEAV?$_Func_base@AEAVactor@play@kmint@@AEAV?$unique_ptr@Vactor@play@kmint@@U?$default_delete@Vactor@play@kmint@@@std@@@std@@@2@@Z
	?_Set@?$_Func_class@AEBVactor@play@kmint@@AEBV?$unique_ptr@Vactor@play@kmint@@U?$default_delete@Vactor@play@kmint@@@std@@@std@@@std@@AEAAXPEAV?$_Func_base@AEBVactor@play@kmint@@AEBV?$unique_ptr@Vactor@play@kmint@@U?$default_delete@Vactor@play@kmint@@@std@@@std@@@2@@Z
	?_Set_index@?$_Variant_base@Ufree@?$quad_tree@$03@play@kmint@@Usaturated@234@@std@@QEAAX_K@Z
	?_Storage@?$_Variant_base@Ufree@?$quad_tree@$03@play@kmint@@Usaturated@234@@std@@QEGAAAEAV?$_Variant_storage_@$0A@Ufree@?$quad_tree@$03@play@kmint@@Usaturated@234@@2@XZ
	?_Storage@?$_Variant_base@Ufree@?$quad_tree@$03@play@kmint@@Usaturated@234@@std@@QEGBAAEBV?$_Variant_storage_@$0A@Ufree@?$quad_tree@$03@play@kmint@@Usaturated@234@@2@XZ
	?_Swap_proxy_and_iterators@?$basic_string@DU?$char_traits@D@std@@V?$allocator@D@2@@std@@AEAAXAEAV12@@Z
	?_Swap_proxy_and_iterators@_Container_base12@std@@QEAAXAEAU12@@Z
	?_Take_contents@?$_Vector_val@U?$_Simple_types@V?$unique_ptr@V?$basic_node@Umap_node_info@map@kmint@@@graph@kmint@@U?$default_delete@V?$basic_node@Umap_node_info@map@kmint@@@graph@kmint@@@std@@@std@@@std@@@std@@QEAAXAEAV12@@Z
	?_Take_contents@?$_Vector_val@U?$_Simple_types@V?$unique_ptr@V?$basic_node@Uno_node_info@graph@kmint@@@graph@kmint@@U?$default_delete@V?$basic_node@Uno_node_info@graph@kmint@@@graph@kmint@@@std@@@std@@@std@@@std@@QEAAXAEAV12@@Z
	?_Take_contents@?$basic_string@DU?$char_traits@D@std@@V?$allocator@D@2@@std@@AEAAXAEAV12@U?$integral_constant@_N$00@2@@Z
	?_Target_type@?$_Func_impl_no_alloc@P6AAEAV?$basic_node@Umap_node_info@map@kmint@@@graph@kmint@@AEBV?$unique_ptr@V?$basic_node@Umap_node_info@map@kmint@@@graph@kmint@@U?$default_delete@V?$basic_node@Umap_node_info@map@kmint@@@graph@kmint@@@std@@@std@@@ZAEAV123@AEAV45@@std@@EEBAAEBVtype_info@@XZ
	?_Target_type@?$_Func_impl_no_alloc@P6AAEAVactor@play@kmint@@AEBV?$unique_ptr@Vactor@play@kmint@@U?$default_delete@Vactor@play@kmint@@@std@@@std@@@ZAEAV123@AEAV45@@std@@EEBAAEBVtype_info@@XZ
	?_Target_type@?$_Func_impl_no_alloc@P6AAEBVactor@play@kmint@@AEBV?$unique_ptr@Vactor@play@kmint@@U?$default_delete@Vactor@play@kmint@@@std@@@std@@@ZAEBV123@AEBV45@@std@@EEBAAEBVtype_info@@XZ
	?_Throw_bad_array_new_length@std@@YAXXZ
	?_Throw_bad_cast@std@@YAXXZ
	?_Throw_bad_variant_access@std@@YAXXZ
	?_Throw_tree_length_error@std@@YAXXZ
	?_Tidy@?$_Func_class@AEAV?$basic_node@Umap_node_info@map@kmint@@@graph@kmint@@AEAV?$unique_ptr@V?$basic_node@Umap_node_info@map@kmint@@@graph@kmint@@U?$default_delete@V?$basic_node@Umap_node_info@map@kmint@@@graph@kmint@@@std@@@std@@@std@@IEAAXXZ
	?_Tidy@?$_Func_class@AEAVactor@play@kmint@@AEAV?$unique_ptr@Vactor@play@kmint@@U?$default_delete@Vactor@play@kmint@@@std@@@std@@@std@@IEAAXXZ
	?_Tidy@?$_Func_class@AEBVactor@play@kmint@@AEBV?$unique_ptr@Vactor@play@kmint@@U?$default_delete@Vactor@play@kmint@@@std@@@std@@@std@@IEAAXXZ
	?_Tidy@?$_Hash_vec@V?$allocator@V?$_List_unchecked_iterator@V?$_List_val@U?$_List_simple_types@U?$pair@$$CBDV?$vector@PEAV?$basic_node@Umap_node_info@map@kmint@@@graph@kmint@@V?$allocator@PEAV?$basic_node@Umap_node_info@map@kmint@@@graph@kmint@@@std@@@std@@@std@@@std@@@std@@@std@@@std@@@std@@QEAAXXZ
	?_Tidy@?$basic_stringbuf@DU?$char_traits@D@std@@V?$allocator@D@2@@std@@IEAAXXZ
	?_Tidy@?$list@U?$pair@$$CBDV?$vector@PEAV?$basic_node@Umap_node_info@map@kmint@@@graph@kmint@@V?$allocator@PEAV?$basic_node@Umap_node_info@map@kmint@@@graph@kmint@@@std@@@std@@@std@@V?$allocator@U?$pair@$$CBDV?$vector@PEAV?$basic_node@Umap_node_info@map@kmint@@@graph@kmint@@V?$allocator@PEAV?$basic_node@Umap_node_info@map@kmint@@@graph@kmint@@@std@@@std@@@std@@@2@@std@@AEAAXXZ
	?_Tidy@?$vector@DV?$allocator@D@std@@@std@@AEAAXXZ
	?_Tidy@?$vector@HV?$allocator@H@std@@@std@@AEAAXXZ
	?_Tidy@?$vector@PEAV?$basic_node@Umap_node_info@map@kmint@@@graph@kmint@@V?$allocator@PEAV?$basic_node@Umap_node_info@map@kmint@@@graph@kmint@@@std@@@std@@AEAAXXZ
	?_Tidy@?$vector@V?$unique_ptr@V?$basic_edge@Umap_node_info@map@kmint@@@graph@kmint@@U?$default_delete@V?$basic_edge@Umap_node_info@map@kmint@@@graph@kmint@@@std@@@std@@V?$allocator@V?$unique_ptr@V?$basic_edge@Umap_node_info@map@kmint@@@graph@kmint@@U?$default_delete@V?$basic_edge@Umap_node_info@map@kmint@@@graph@kmint@@@std@@@std@@@2@@std@@AEAAXXZ
	?_Tidy@?$vector@V?$unique_ptr@V?$basic_edge@Uno_node_info@graph@kmint@@@graph@kmint@@U?$default_delete@V?$basic_edge@Uno_node_info@graph@kmint@@@graph@kmint@@@std@@@std@@V?$allocator@V?$unique_ptr@V?$basic_edge@Uno_node_info@graph@kmint@@@graph@kmint@@U?$default_delete@V?$basic_edge@Uno_node_info@graph@kmint@@@graph@kmint@@@std@@@std@@@2@@std@@AEAAXXZ
	?_Tidy@?$vector@V?$unique_ptr@V?$basic_node@Umap_node_info@map@kmint@@@graph@kmint@@U?$default_delete@V?$basic_node@Umap_node_info@map@kmint@@@graph@kmint@@@std@@@std@@V?$allocator@V?$unique_ptr@V?$basic_node@Umap_node_info@map@kmint@@@graph@kmint@@U?$default_delete@V?$basic_node@Umap_node_info@map@kmint@@@graph@kmint@@@std@@@std@@@2@@std@@AEAAXXZ
	?_Tidy@?$vector@V?$unique_ptr@V?$basic_node@Uno_node_info@graph@kmint@@@graph@kmint@@U?$default_delete@V?$basic_node@Uno_node_info@graph@kmint@@@graph@kmint@@@std@@@std@@V?$allocator@V?$unique_ptr@V?$basic_node@Uno_node_info@graph@kmint@@@graph@kmint@@U?$default_delete@V?$basic_node@Uno_node_info@graph@kmint@@@graph@kmint@@@std@@@std@@@2@@std@@AEAAXXZ
	?_Tidy_deallocate@?$basic_string@DU?$char_traits@D@std@@V?$allocator@D@2@@std@@AEAAXXZ
	?_Tidy_init@?$basic_string@DU?$char_traits@D@std@@V?$allocator@D@2@@std@@AEAAXXZ
	?_Ufill@?$vector@HV?$allocator@H@std@@@std@@AEAAPEAHPEAH_KAEBH@Z
	?_Umove@?$vector@DV?$allocator@D@std@@@std@@AEAAPEADPEAD00@Z
	?_Umove@?$vector@PEAV?$basic_node@Umap_node_info@map@kmint@@@graph@kmint@@V?$allocator@PEAV?$basic_node@Umap_node_info@map@kmint@@@graph@kmint@@@std@@@std@@AEAAPEAPEAV?$basic_node@Umap_node_info@map@kmint@@@graph@kmint@@PEAPEAV345@00@Z
	?_Umove@?$vector@PEAVactor@play@kmint@@V?$allocator@PEAVactor@play@kmint@@@std@@@std@@AEAAPEAPEAVactor@play@kmint@@PEAPEAV345@00@Z
	?_Umove@?$vector@V?$unique_ptr@V?$basic_edge@Umap_node_info@map@kmint@@@graph@kmint@@U?$default_delete@V?$basic_edge@Umap_node_info@map@kmint@@@graph@kmint@@@std@@@std@@V?$allocator@V?$unique_ptr@V?$basic_edge@Umap_node_info@map@kmint@@@graph@kmint@@U?$default_delete@V?$basic_edge@Umap_node_info@map@kmint@@@graph@kmint@@@std@@@std@@@2@@std@@AEAAPEAV?$unique_ptr@V?$basic_edge@Umap_node_info@map@kmint@@@graph@kmint@@U?$default_delete@V?$basic_edge@Umap_node_info@map@kmint@@@graph@kmint@@@std@@@2@PEAV32@00@Z
	?_Umove@?$vector@V?$unique_ptr@V?$basic_edge@Uno_node_info@graph@kmint@@@graph@kmint@@U?$default_delete@V?$basic_edge@Uno_node_info@graph@kmint@@@graph@kmint@@@std@@@std@@V?$allocator@V?$unique_ptr@V?$basic_edge@Uno_node_info@graph@kmint@@@graph@kmint@@U?$default_delete@V?$basic_edge@Uno_node_info@graph@kmint@@@graph@kmint@@@std@@@std@@@2@@std@@AEAAPEAV?$unique_ptr@V?$basic_edge@Uno_node_info@graph@kmint@@@graph@kmint@@U?$default_delete@V?$basic_edge@Uno_node_info@graph@kmint@@@graph@kmint@@@std@@@2@PEAV32@00@Z
	?_Umove@?$vector@V?$unique_ptr@V?$basic_node@Umap_node_info@map@kmint@@@graph@kmint@@U?$default_delete@V?$basic_node@Umap_node_info@map@kmint@@@graph@kmint@@@std@@@std@@V?$allocator@V?$unique_ptr@V?$basic_node@Umap_node_info@map@kmint@@@graph@kmint@@U?$default_delete@V?$basic_node@Umap_node_info@map@kmint@@@graph@kmint@@@std@@@std@@@2@@std@@AEAAPEAV?$unique_ptr@V?$basic_node@Umap_node_info@map@kmint@@@graph@kmint@@U?$default_delete@V?$basic_node@Umap_node_info@map@kmint@@@graph@kmint@@@std@@@2@PEAV32@00@Z
	?_Umove@?$vector@V?$unique_ptr@V?$basic_node@Uno_node_info@graph@kmint@@@graph@kmint@@U?$default_delete@V?$basic_node@Uno_node_info@graph@kmint@@@graph@kmint@@@std@@@std@@V?$allocator@V?$unique_ptr@V?$basic_node@Uno_node_info@graph@kmint@@@graph@kmint@@U?$default_delete@V?$basic_node@Uno_node_info@graph@kmint@@@graph@kmint@@@std@@@std@@@2@@std@@AEAAPEAV?$unique_ptr@V?$basic_node@Uno_node_info@graph@kmint@@@graph@kmint@@U?$default_delete@V?$basic_node@Uno_node_info@graph@kmint@@@graph@kmint@@@std@@@2@PEAV32@00@Z
	?_Umove_if_noexcept1@?$vector@DV?$allocator@D@std@@@std@@AEAAXPEAD00U?$integral_constant@_N$00@2@@Z
	?_Umove_if_noexcept1@?$vector@PEAV?$basic_node@Umap_node_info@map@kmint@@@graph@kmint@@V?$allocator@PEAV?$basic_node@Umap_node_info@map@kmint@@@graph@kmint@@@std@@@std@@AEAAXPEAPEAV?$basic_node@Umap_node_info@map@kmint@@@graph@kmint@@00U?$integral_constant@_N$00@2@@Z
	?_Umove_if_noexcept1@?$vector@PEAVactor@play@kmint@@V?$allocator@PEAVactor@play@kmint@@@std@@@std@@AEAAXPEAPEAVactor@play@kmint@@00U?$integral_constant@_N$00@2@@Z
	?_Umove_if_noexcept1@?$vector@V?$unique_ptr@V?$basic_edge@Umap_node_info@map@kmint@@@graph@kmint@@U?$default_delete@V?$basic_edge@Umap_node_info@map@kmint@@@graph@kmint@@@std@@@std@@V?$allocator@V?$unique_ptr@V?$basic_edge@Umap_node_info@map@kmint@@@graph@kmint@@U?$default_delete@V?$basic_edge@Umap_node_info@map@kmint@@@graph@kmint@@@std@@@std@@@2@@std@@AEAAXPEAV?$unique_ptr@V?$basic_edge@Umap_node_info@map@kmint@@@graph@kmint@@U?$default_delete@V?$basic_edge@Umap_node_info@map@kmint@@@graph@kmint@@@std@@@2@00U?$integral_constant@_N$00@2@@Z
	?_Umove_if_noexcept1@?$vector@V?$unique_ptr@V?$basic_edge@Uno_node_info@graph@kmint@@@graph@kmint@@U?$default_delete@V?$basic_edge@Uno_node_info@graph@kmint@@@graph@kmint@@@std@@@std@@V?$allocator@V?$unique_ptr@V?$basic_edge@Uno_node_info@graph@kmint@@@graph@kmint@@U?$default_delete@V?$basic_edge@Uno_node_info@graph@kmint@@@graph@kmint@@@std@@@std@@@2@@std@@AEAAXPEAV?$unique_ptr@V?$basic_edge@Uno_node_info@graph@kmint@@@graph@kmint@@U?$default_delete@V?$basic_edge@Uno_node_info@graph@kmint@@@graph@kmint@@@std@@@2@00U?$integral_constant@_N$00@2@@Z
	?_Umove_if_noexcept1@?$vector@V?$unique_ptr@V?$basic_node@Umap_node_info@map@kmint@@@graph@kmint@@U?$default_delete@V?$basic_node@Umap_node_info@map@kmint@@@graph@kmint@@@std@@@std@@V?$allocator@V?$unique_ptr@V?$basic_node@Umap_node_info@map@kmint@@@graph@kmint@@U?$default_delete@V?$basic_node@Umap_node_info@map@kmint@@@graph@kmint@@@std@@@std@@@2@@std@@AEAAXPEAV?$unique_ptr@V?$basic_node@Umap_node_info@map@kmint@@@graph@kmint@@U?$default_delete@V?$basic_node@Umap_node_info@map@kmint@@@graph@kmint@@@std@@@2@00U?$integral_constant@_N$00@2@@Z
	?_Umove_if_noexcept1@?$vector@V?$unique_ptr@V?$basic_node@Uno_node_info@graph@kmint@@@graph@kmint@@U?$default_delete@V?$basic_node@Uno_node_info@graph@kmint@@@graph@kmint@@@std@@@std@@V?$allocator@V?$unique_ptr@V?$basic_node@Uno_node_info@graph@kmint@@@graph@kmint@@U?$default_delete@V?$basic_node@Uno_node_info@graph@kmint@@@graph@kmint@@@std@@@std@@@2@@std@@AEAAXPEAV?$unique_ptr@V?$basic_node@Uno_node_info@graph@kmint@@@graph@kmint@@U?$default_delete@V?$basic_node@Uno_node_info@graph@kmint@@@graph@kmint@@@std@@@2@00U?$integral_constant@_N$00@2@@Z
	?_Umove_if_noexcept@?$vector@DV?$allocator@D@std@@@std@@AEAAXPEAD00@Z
	?_Umove_if_noexcept@?$vector@PEAV?$basic_node@Umap_node_info@map@kmint@@@graph@kmint@@V?$allocator@PEAV?$basic_node@Umap_node_info@map@kmint@@@graph@kmint@@@std@@@std@@AEAAXPEAPEAV?$basic_node@Umap_node_info@map@kmint@@@graph@kmint@@00@Z
	?_Umove_if_noexcept@?$vector@PEAVactor@play@kmint@@V?$allocator@PEAVactor@play@kmint@@@std@@@std@@AEAAXPEAPEAVactor@play@kmint@@00@Z
	?_Umove_if_noexcept@?$vector@V?$unique_ptr@V?$basic_edge@Umap_node_info@map@kmint@@@graph@kmint@@U?$default_delete@V?$basic_edge@Umap_node_info@map@kmint@@@graph@kmint@@@std@@@std@@V?$allocator@V?$unique_ptr@V?$basic_edge@Umap_node_info@map@kmint@@@graph@kmint@@U?$default_delete@V?$basic_edge@Umap_node_info@map@kmint@@@graph@kmint@@@std@@@std@@@2@@std@@AEAAXPEAV?$unique_ptr@V?$basic_edge@Umap_node_info@map@kmint@@@graph@kmint@@U?$default_delete@V?$basic_edge@Umap_node_info@map@kmint@@@graph@kmint@@@std@@@2@00@Z
	?_Umove_if_noexcept@?$vector@V?$unique_ptr@V?$basic_edge@Uno_node_info@graph@kmint@@@graph@kmint@@U?$default_delete@V?$basic_edge@Uno_node_info@graph@kmint@@@graph@kmint@@@std@@@std@@V?$allocator@V?$unique_ptr@V?$basic_edge@Uno_node_info@graph@kmint@@@graph@kmint@@U?$default_delete@V?$basic_edge@Uno_node_info@graph@kmint@@@graph@kmint@@@std@@@std@@@2@@std@@AEAAXPEAV?$unique_ptr@V?$basic_edge@Uno_node_info@graph@kmint@@@graph@kmint@@U?$default_delete@V?$basic_edge@Uno_node_info@graph@kmint@@@graph@kmint@@@std@@@2@00@Z
	?_Umove_if_noexcept@?$vector@V?$unique_ptr@V?$basic_node@Umap_node_info@map@kmint@@@graph@kmint@@U?$default_delete@V?$basic_node@Umap_node_info@map@kmint@@@graph@kmint@@@std@@@std@@V?$allocator@V?$unique_ptr@V?$basic_node@Umap_node_info@map@kmint@@@graph@kmint@@U?$default_delete@V?$basic_node@Umap_node_info@map@kmint@@@graph@kmint@@@std@@@std@@@2@@std@@AEAAXPEAV?$unique_ptr@V?$basic_node@Umap_node_info@map@kmint@@@graph@kmint@@U?$default_delete@V?$basic_node@Umap_node_info@map@kmint@@@graph@kmint@@@std@@@2@00@Z
	?_Umove_if_noexcept@?$vector@V?$unique_ptr@V?$basic_node@Uno_node_info@graph@kmint@@@graph@kmint@@U?$default_delete@V?$basic_node@Uno_node_info@graph@kmint@@@graph@kmint@@@std@@@std@@V?$allocator@V?$unique_ptr@V?$basic_node@Uno_node_info@graph@kmint@@@graph@kmint@@U?$default_delete@V?$basic_node@Uno_node_info@graph@kmint@@@graph@kmint@@@std@@@std@@@2@@std@@AEAAXPEAV?$unique_ptr@V?$basic_node@Uno_node_info@graph@kmint@@@graph@kmint@@U?$default_delete@V?$basic_node@Uno_node_info@graph@kmint@@@graph@kmint@@@std@@@2@00@Z
	?_Unchecked_begin@?$_Hash@V?$_Umap_traits@DV?$vector@PEAV?$basic_node@Umap_node_info@map@kmint@@@graph@kmint@@V?$allocator@PEAV?$basic_node@Umap_node_info@map@kmint@@@graph@kmint@@@std@@@std@@V?$_Uhash_compare@DU?$hash@D@std@@U?$equal_to@D@2@@2@V?$allocator@U?$pair@$$CBDV?$vector@PEAV?$basic_node@Umap_node_info@map@kmint@@@graph@kmint@@V?$allocator@PEAV?$basic_node@Umap_node_info@map@kmint@@@graph@kmint@@@std@@@std@@@std@@@2@$0A@@std@@@std@@QEAA?AV?$_List_unchecked_iterator@V?$_List_val@U?$_List_simple_types@U?$pair@$$CBDV?$vector@PEAV?$basic_node@Umap_node_info@map@kmint@@@graph@kmint@@V?$allocator@PEAV?$basic_node@Umap_node_info@map@kmint@@@graph@kmint@@@std@@@std@@@std@@@std@@@std@@@2@XZ
	?_Unchecked_begin@?$array@PEAVactor@play@kmint@@$03@std@@QEAAPEAPEAVactor@play@kmint@@XZ
	?_Unchecked_begin@?$list@U?$pair@$$CBDV?$vector@PEAV?$basic_node@Umap_node_info@map@kmint@@@graph@kmint@@V?$allocator@PEAV?$basic_node@Umap_node_info@map@kmint@@@graph@kmint@@@std@@@std@@@std@@V?$allocator@U?$pair@$$CBDV?$vector@PEAV?$basic_node@Umap_node_info@map@kmint@@@graph@kmint@@V?$allocator@PEAV?$basic_node@Umap_node_info@map@kmint@@@graph@kmint@@@std@@@std@@@std@@@2@@std@@QEAA?AV?$_List_unchecked_iterator@V?$_List_val@U?$_List_simple_types@U?$pair@$$CBDV?$vector@PEAV?$basic_node@Umap_node_info@map@kmint@@@graph@kmint@@V?$allocator@PEAV?$basic_node@Umap_node_info@map@kmint@@@graph@kmint@@@std@@@std@@@std@@@std@@@std@@@2@XZ
	?_Unchecked_end@?$_Hash@V?$_Umap_traits@DV?$vector@PEAV?$basic_node@Umap_node_info@map@kmint@@@graph@kmint@@V?$allocator@PEAV?$basic_node@Umap_node_info@map@kmint@@@graph@kmint@@@std@@@std@@V?$_Uhash_compare@DU?$hash@D@std@@U?$equal_to@D@2@@2@V?$allocator@U?$pair@$$CBDV?$vector@PEAV?$basic_node@Umap_node_info@map@kmint@@@graph@kmint@@V?$allocator@PEAV?$basic_node@Umap_node_info@map@kmint@@@graph@kmint@@@std@@@std@@@std@@@2@$0A@@std@@@std@@QEAA?AV?$_List_unchecked_iterator@V?$_List_val@U?$_List_simple_types@U?$pair@$$CBDV?$vector@PEAV?$basic_node@Umap_node_info@map@kmint@@@graph@kmint@@V?$allocator@PEAV?$basic_node@Umap_node_info@map@kmint@@@graph@kmint@@@std@@@std@@@std@@@std@@@std@@@2@XZ
	?_Unchecked_end@?$array@PEAVactor@play@kmint@@$03@std@@QEAAPEAPEAVactor@play@kmint@@XZ
	?_Unchecked_end@?$list@U?$pair@$$CBDV?$vector@PEAV?$basic_node@Umap_node_info@map@kmint@@@graph@kmint@@V?$allocator@PEAV?$basic_node@Umap_node_info@map@kmint@@@graph@kmint@@@std@@@std@@@std@@V?$allocator@U?$pair@$$CBDV?$vector@PEAV?$basic_node@Umap_node_info@map@kmint@@@graph@kmint@@V?$allocator@PEAV?$basic_node@Umap_node_info@map@kmint@@@graph@kmint@@@std@@@std@@@std@@@2@@std@@QEAA?AV?$_List_unchecked_iterator@V?$_List_val@U?$_List_simple_types@U?$pair@$$CBDV?$vector@PEAV?$basic_node@Umap_node_info@map@kmint@@@graph@kmint@@V?$allocator@PEAV?$basic_node@Umap_node_info@map@kmint@@@graph@kmint@@@std@@@std@@@std@@@std@@@std@@@2@XZ
	?_Unchecked_erase@?$_Hash@V?$_Umap_traits@DV?$vector@PEAV?$basic_node@Umap_node_info@map@kmint@@@graph@kmint@@V?$allocator@PEAV?$basic_node@Umap_node_info@map@kmint@@@graph@kmint@@@std@@@std@@V?$_Uhash_compare@DU?$hash@D@std@@U?$equal_to@D@2@@2@V?$allocator@U?$pair@$$CBDV?$vector@PEAV?$basic_node@Umap_node_info@map@kmint@@@graph@kmint@@V?$allocator@PEAV?$basic_node@Umap_node_info@map@kmint@@@graph@kmint@@@std@@@std@@@std@@@2@$0A@@std@@@std@@AEAAPEAU?$_List_node@U?$pair@$$CBDV?$vector@PEAV?$basic_node@Umap_node_info@map@kmint@@@graph@kmint@@V?$allocator@PEAV?$basic_node@Umap_node_info@map@kmint@@@graph@kmint@@@std@@@std@@@std@@PEAX@2@PEAU32@QEAU32@@Z
	?_Unchecked_erase@?$list@U?$pair@$$CBDV?$vector@PEAV?$basic_node@Umap_node_info@map@kmint@@@graph@kmint@@V?$allocator@PEAV?$basic_node@Umap_node_info@map@kmint@@@graph@kmint@@@std@@@std@@@std@@V?$allocator@U?$pair@$$CBDV?$vector@PEAV?$basic_node@Umap_node_info@map@kmint@@@graph@kmint@@V?$allocator@PEAV?$basic_node@Umap_node_info@map@kmint@@@graph@kmint@@@std@@@std@@@std@@@2@@std@@AEAAPEAU?$_List_node@U?$pair@$$CBDV?$vector@PEAV?$basic_node@Umap_node_info@map@kmint@@@graph@kmint@@V?$allocator@PEAV?$basic_node@Umap_node_info@map@kmint@@@graph@kmint@@@std@@@std@@@std@@PEAX@2@PEAU32@QEAU32@@Z
	?_Unchecked_splice@?$_List_val@U?$_List_simple_types@U?$pair@$$CBDV?$vector@PEAV?$basic_node@Umap_node_info@map@kmint@@@graph@kmint@@V?$allocator@PEAV?$basic_node@Umap_node_info@map@kmint@@@graph@kmint@@@std@@@std@@@std@@@std@@@std@@SAPEAU?$_List_node@U?$pair@$$CBDV?$vector@PEAV?$basic_node@Umap_node_info@map@kmint@@@graph@kmint@@V?$allocator@PEAV?$basic_node@Umap_node_info@map@kmint@@@graph@kmint@@@std@@@std@@@std@@PEAX@2@QEAU32@00@Z
	?_Unwrapped@?$_Vector_iterator@V?$_Vector_val@U?$_Simple_types@V?$unique_ptr@Vactor@play@kmint@@U?$default_delete@Vactor@play@kmint@@@std@@@std@@@std@@@std@@@std@@QEBAPEAV?$unique_ptr@Vactor@play@kmint@@U?$default_delete@Vactor@play@kmint@@@std@@@2@XZ
	?_Variant_visit_index1@std@@YA_K_K@Z
	?_Verify_range@std@@YAXAEBV?$_Vector_const_iterator@V?$_Vector_val@U?$_Simple_types@V?$unique_ptr@Vactor@play@kmint@@U?$default_delete@Vactor@play@kmint@@@std@@@std@@@std@@@std@@@1@0@Z
	?_Xlen_string@std@@YAXXZ
	?_Xlength@?$vector@DV?$allocator@D@std@@@std@@CAXXZ
	?_Xlength@?$vector@HV?$allocator@H@std@@@std@@CAXXZ
	?_Xlength@?$vector@PEAV?$basic_node@Umap_node_info@map@kmint@@@graph@kmint@@V?$allocator@PEAV?$basic_node@Umap_node_info@map@kmint@@@graph@kmint@@@std@@@std@@CAXXZ
	?_Xlength@?$vector@PEAVactor@play@kmint@@V?$allocator@PEAVactor@play@kmint@@@std@@@std@@CAXXZ
	?_Xlength@?$vector@V?$unique_ptr@V?$basic_edge@Umap_node_info@map@kmint@@@graph@kmint@@U?$default_delete@V?$basic_edge@Umap_node_info@map@kmint@@@graph@kmint@@@std@@@std@@V?$allocator@V?$unique_ptr@V?$basic_edge@Umap_node_info@map@kmint@@@graph@kmint@@U?$default_delete@V?$basic_edge@Umap_node_info@map@kmint@@@graph@kmint@@@std@@@std@@@2@@std@@CAXXZ
	?_Xlength@?$vector@V?$unique_ptr@V?$basic_edge@Uno_node_info@graph@kmint@@@graph@kmint@@U?$default_delete@V?$basic_edge@Uno_node_info@graph@kmint@@@graph@kmint@@@std@@@std@@V?$allocator@V?$unique_ptr@V?$basic_edge@Uno_node_info@graph@kmint@@@graph@kmint@@U?$default_delete@V?$basic_edge@Uno_node_info@graph@kmint@@@graph@kmint@@@std@@@std@@@2@@std@@CAXXZ
	?_Xlength@?$vector@V?$unique_ptr@V?$basic_node@Umap_node_info@map@kmint@@@graph@kmint@@U?$default_delete@V?$basic_node@Umap_node_info@map@kmint@@@graph@kmint@@@std@@@std@@V?$allocator@V?$unique_ptr@V?$basic_node@Umap_node_info@map@kmint@@@graph@kmint@@U?$default_delete@V?$basic_node@Umap_node_info@map@kmint@@@graph@kmint@@@std@@@std@@@2@@std@@CAXXZ
	?_Xlength@?$vector@V?$unique_ptr@V?$basic_node@Uno_node_info@graph@kmint@@@graph@kmint@@U?$default_delete@V?$basic_node@Uno_node_info@graph@kmint@@@graph@kmint@@@std@@@std@@V?$allocator@V?$unique_ptr@V?$basic_node@Uno_node_info@graph@kmint@@@graph@kmint@@U?$default_delete@V?$basic_node@Uno_node_info@graph@kmint@@@graph@kmint@@@std@@@std@@@2@@std@@CAXXZ
	?_Xran@?$_String_val@U?$_Simple_types@D@std@@@std@@SAXXZ
	?__empty_global_delete@@YAXPEAX@Z
	?__empty_global_delete@@YAXPEAXW4align_val_t@std@@@Z
	?__empty_global_delete@@YAXPEAX_K@Z
	?__empty_global_delete@@YAXPEAX_KW4align_val_t@std@@@Z
	?acos@@YAMM@Z
	?acos@math@kmint@@YA?AVangle@12@M@Z
	?act@stage@play@kmint@@QEAAXV?$duration@_JU?$ratio@$00$0DLJKMKAA@@std@@@chrono@std@@@Z
	?add@?$quad_tree@$03@play@kmint@@QEAAXAEAVactor@23@@Z
	?add_edge@?$basic_node@Umap_node_info@map@kmint@@@graph@kmint@@QEAAXAEAV123@M@Z
	?add_edge@?$basic_node@Uno_node_info@graph@kmint@@@graph@kmint@@QEAAXAEAV123@M@Z
	?add_node@?$basic_graph@Umap_node_info@map@kmint@@@graph@kmint@@QEAAAEAV?$basic_node@Umap_node_info@map@kmint@@@23@V?$basic_vector2d@M@math@3@$$QEAUmap_node_info@map@3@@Z
	?add_node@?$basic_graph@Uno_node_info@graph@kmint@@@graph@kmint@@QEAAAEAV?$basic_node@Uno_node_info@graph@kmint@@@23@V?$basic_vector2d@M@math@3@AEBUno_node_info@23@@Z
	?add_tile_info@map_info@map@kmint@@QEAAXUtile_info@23@@Z
	?allocate@?$allocator@D@std@@QEAAPEAD_K@Z
	?allocate@?$allocator@H@std@@QEAAPEAH_K@Z
	?allocate@?$allocator@PEAV?$basic_node@Umap_node_info@map@kmint@@@graph@kmint@@@std@@QEAAPEAPEAV?$basic_node@Umap_node_info@map@kmint@@@graph@kmint@@_K@Z
	?allocate@?$allocator@PEAVactor@play@kmint@@@std@@QEAAPEAPEAVactor@play@kmint@@_K@Z
	?allocate@?$allocator@U?$_List_node@U?$pair@$$CBDV?$vector@PEAV?$basic_node@Umap_node_info@map@kmint@@@graph@kmint@@V?$allocator@PEAV?$basic_node@Umap_node_info@map@kmint@@@graph@kmint@@@std@@@std@@@std@@PEAX@std@@@std@@QEAAPEAU?$_List_node@U?$pair@$$CBDV?$vector@PEAV?$basic_node@Umap_node_info@map@kmint@@@graph@kmint@@V?$allocator@PEAV?$basic_node@Umap_node_info@map@kmint@@@graph@kmint@@@std@@@std@@@std@@PEAX@2@_K@Z
	?allocate@?$allocator@U?$_Tree_node@U?$pair@$$CBDUtile_info@map@kmint@@@std@@PEAX@std@@@std@@QEAAPEAU?$_Tree_node@U?$pair@$$CBDUtile_info@map@kmint@@@std@@PEAX@2@_K@Z
	?allocate@?$allocator@U?$_Tree_node@U?$pair@$$CBV?$basic_string@DU?$char_traits@D@std@@V?$allocator@D@2@@std@@Vtexture@sdl@ui@kmint@@@std@@PEAX@std@@@std@@QEAAPEAU?$_Tree_node@U?$pair@$$CBV?$basic_string@DU?$char_traits@D@std@@V?$allocator@D@2@@std@@Vtexture@sdl@ui@kmint@@@std@@PEAX@2@_K@Z
	?allocate@?$allocator@U_Container_proxy@std@@@std@@QEAAPEAU_Container_proxy@2@_K@Z
	?allocate@?$allocator@V?$_List_unchecked_iterator@V?$_List_val@U?$_List_simple_types@U?$pair@$$CBDV?$vector@PEAV?$basic_node@Umap_node_info@map@kmint@@@graph@kmint@@V?$allocator@PEAV?$basic_node@Umap_node_info@map@kmint@@@graph@kmint@@@std@@@std@@@std@@@std@@@std@@@std@@@std@@QEAAPEAV?$_List_unchecked_iterator@V?$_List_val@U?$_List_simple_types@U?$pair@$$CBDV?$vector@PEAV?$basic_node@Umap_node_info@map@kmint@@@graph@kmint@@V?$allocator@PEAV?$basic_node@Umap_node_info@map@kmint@@@graph@kmint@@@std@@@std@@@std@@@std@@@std@@@2@_K@Z
	?allocate@?$allocator@V?$unique_ptr@V?$basic_edge@Umap_node_info@map@kmint@@@graph@kmint@@U?$default_delete@V?$basic_edge@Umap_node_info@map@kmint@@@graph@kmint@@@std@@@std@@@std@@QEAAPEAV?$unique_ptr@V?$basic_edge@Umap_node_info@map@kmint@@@graph@kmint@@U?$default_delete@V?$basic_edge@Umap_node_info@map@kmint@@@graph@kmint@@@std@@@2@_K@Z
	?allocate@?$allocator@V?$unique_ptr@V?$basic_edge@Uno_node_info@graph@kmint@@@graph@kmint@@U?$default_delete@V?$basic_edge@Uno_node_info@graph@kmint@@@graph@kmint@@@std@@@std@@@std@@QEAAPEAV?$unique_ptr@V?$basic_edge@Uno_node_info@graph@kmint@@@graph@kmint@@U?$default_delete@V?$basic_edge@Uno_node_info@graph@kmint@@@graph@kmint@@@std@@@2@_K@Z
	?allocate@?$allocator@V?$unique_ptr@V?$basic_node@Umap_node_info@map@kmint@@@graph@kmint@@U?$default_delete@V?$basic_node@Umap_node_info@map@kmint@@@graph@kmint@@@std@@@std@@@std@@QEAAPEAV?$unique_ptr@V?$basic_node@Umap_node_info@map@kmint@@@graph@kmint@@U?$default_delete@V?$basic_node@Umap_node_info@map@kmint@@@graph@kmint@@@std@@@2@_K@Z
	?allocate@?$allocator@V?$unique_ptr@V?$basic_node@Uno_node_info@graph@kmint@@@graph@kmint@@U?$default_delete@V?$basic_node@Uno_node_info@graph@kmint@@@graph@kmint@@@std@@@std@@@std@@QEAAPEAV?$unique_ptr@V?$basic_node@Uno_node_info@graph@kmint@@@graph@kmint@@U?$default_delete@V?$basic_node@Uno_node_info@graph@kmint@@@graph@kmint@@@std@@@2@_K@Z
	?alpha@color@graphics@kmint@@QEBAEXZ
	?append@?$basic_string@DU?$char_traits@D@std@@V?$allocator@D@2@@std@@QEAAAEAV12@QEBD@Z
	?append@?$basic_string@DU?$char_traits@D@std@@V?$allocator@D@2@@std@@QEAAAEAV12@QEBD_K@Z
	?asin@@YAMM@Z
	?asin@math@kmint@@YA?AVangle@12@M@Z
	?assign@?$_Narrow_char_traits@DH@std@@SAXAEADAEBD@Z
	?assign@?$basic_string@DU?$char_traits@D@std@@V?$allocator@D@2@@std@@QEAAAEAV12@QEBD@Z
	?assign@?$basic_string@DU?$char_traits@D@std@@V?$allocator@D@2@@std@@QEAAAEAV12@QEBD_K@Z
	?at@?$map@DUtile_info@0kmint@@U?$less@D@std@@V?$allocator@U?$pair@$$CBDUtile_info@map@kmint@@@std@@@4@@std@@QEAAAEAUtile_info@map@kmint@@AEBD@Z
	?at@map_info@map@kmint@@QEAAAEAUtile_info@23@D@Z
	?atan2@@YAMMM@Z
	?atan2@math@kmint@@YA?AVangle@12@MM@Z
	?atan@@YAMM@Z
	?atan@math@kmint@@YA?AVangle@12@M@Z
	?back@?$vector@V?$unique_ptr@V?$basic_node@Umap_node_info@map@kmint@@@graph@kmint@@U?$default_delete@V?$basic_node@Umap_node_info@map@kmint@@@graph@kmint@@@std@@@std@@V?$allocator@V?$unique_ptr@V?$basic_node@Umap_node_info@map@kmint@@@graph@kmint@@U?$default_delete@V?$basic_node@Umap_node_info@map@kmint@@@graph@kmint@@@std@@@std@@@2@@std@@QEAAAEAV?$unique_ptr@V?$basic_node@Umap_node_info@map@kmint@@@graph@kmint@@U?$default_delete@V?$basic_node@Umap_node_info@map@kmint@@@graph@kmint@@@std@@@2@XZ
	?back@?$vector@V?$unique_ptr@V?$basic_node@Uno_node_info@graph@kmint@@@graph@kmint@@U?$default_delete@V?$basic_node@Uno_node_info@graph@kmint@@@graph@kmint@@@std@@@std@@V?$allocator@V?$unique_ptr@V?$basic_node@Uno_node_info@graph@kmint@@@graph@kmint@@U?$default_delete@V?$basic_node@Uno_node_info@graph@kmint@@@graph@kmint@@@std@@@std@@@2@@std@@QEAAAEAV?$unique_ptr@V?$basic_node@Uno_node_info@graph@kmint@@@graph@kmint@@U?$default_delete@V?$basic_node@Uno_node_info@graph@kmint@@@graph@kmint@@@std@@@2@XZ
	?begin@?$basic_graph@Umap_node_info@map@kmint@@@graph@kmint@@QEAA?AV?$wrapped_iterator@V?$basic_node@Umap_node_info@map@kmint@@@graph@kmint@@V?$_Vector_iterator@V?$_Vector_val@U?$_Simple_types@V?$unique_ptr@V?$basic_node@Umap_node_info@map@kmint@@@graph@kmint@@U?$default_delete@V?$basic_node@Umap_node_info@map@kmint@@@graph@kmint@@@std@@@std@@@std@@@std@@@std@@@util@3@XZ
	?begin@?$vector@V?$unique_ptr@V?$basic_node@Umap_node_info@map@kmint@@@graph@kmint@@U?$default_delete@V?$basic_node@Umap_node_info@map@kmint@@@graph@kmint@@@std@@@std@@V?$allocator@V?$unique_ptr@V?$basic_node@Umap_node_info@map@kmint@@@graph@kmint@@U?$default_delete@V?$basic_node@Umap_node_info@map@kmint@@@graph@kmint@@@std@@@std@@@2@@std@@QEAA?AV?$_Vector_iterator@V?$_Vector_val@U?$_Simple_types@V?$unique_ptr@V?$basic_node@Umap_node_info@map@kmint@@@graph@kmint@@U?$default_delete@V?$basic_node@Umap_node_info@map@kmint@@@graph@kmint@@@std@@@std@@@std@@@std@@@2@XZ
	?begin@?$vector@V?$unique_ptr@Vactor@play@kmint@@U?$default_delete@Vactor@play@kmint@@@std@@@std@@V?$allocator@V?$unique_ptr@Vactor@play@kmint@@U?$default_delete@Vactor@play@kmint@@@std@@@std@@@2@@std@@QEAA?AV?$_Vector_iterator@V?$_Vector_val@U?$_Simple_types@V?$unique_ptr@Vactor@play@kmint@@U?$default_delete@Vactor@play@kmint@@@std@@@std@@@std@@@std@@@2@XZ
	?begin@?$vector@V?$unique_ptr@Vactor@play@kmint@@U?$default_delete@Vactor@play@kmint@@@std@@@std@@V?$allocator@V?$unique_ptr@Vactor@play@kmint@@U?$default_delete@Vactor@play@kmint@@@std@@@std@@@2@@std@@QEBA?AV?$_Vector_const_iterator@V?$_Vector_val@U?$_Simple_types@V?$unique_ptr@Vactor@play@kmint@@U?$default_delete@Vactor@play@kmint@@@std@@@std@@@std@@@std@@@2@XZ
	?begin@stage@play@kmint@@QEAA?AV?$wrapped_iterator@Vactor@play@kmint@@V?$_Vector_iterator@V?$_Vector_val@U?$_Simple_types@V?$unique_ptr@Vactor@play@kmint@@U?$default_delete@Vactor@play@kmint@@@std@@@std@@@std@@@std@@@std@@@util@3@XZ
	?begin@stage@play@kmint@@QEBA?AV?$wrapped_iterator@$$CBVactor@play@kmint@@V?$_Vector_const_iterator@V?$_Vector_val@U?$_Simple_types@V?$unique_ptr@Vactor@play@kmint@@U?$default_delete@Vactor@play@kmint@@@std@@@std@@@std@@@std@@@std@@@util@3@XZ
	?begin_frame@renderer@ui@kmint@@QEAAXXZ
	?blue@color@graphics@kmint@@QEBAEXZ
	?bucket@?$_Hash@V?$_Umap_traits@DV?$vector@PEAV?$basic_node@Umap_node_info@map@kmint@@@graph@kmint@@V?$allocator@PEAV?$basic_node@Umap_node_info@map@kmint@@@graph@kmint@@@std@@@std@@V?$_Uhash_compare@DU?$hash@D@std@@U?$equal_to@D@2@@2@V?$allocator@U?$pair@$$CBDV?$vector@PEAV?$basic_node@Umap_node_info@map@kmint@@@graph@kmint@@V?$allocator@PEAV?$basic_node@Umap_node_info@map@kmint@@@graph@kmint@@@std@@@std@@@std@@@2@$0A@@std@@@std@@QEBA_KAEBD@Z
	?bucket_count@?$_Hash@V?$_Umap_traits@DV?$vector@PEAV?$basic_node@Umap_node_info@map@kmint@@@graph@kmint@@V?$allocator@PEAV?$basic_node@Umap_node_info@map@kmint@@@graph@kmint@@@std@@@std@@V?$_Uhash_compare@DU?$hash@D@std@@U?$equal_to@D@2@@2@V?$allocator@U?$pair@$$CBDV?$vector@PEAV?$basic_node@Umap_node_info@map@kmint@@@graph@kmint@@V?$allocator@PEAV?$basic_node@Umap_node_info@map@kmint@@@graph@kmint@@@std@@@std@@@std@@@2@$0A@@std@@@std@@QEBA_KXZ
	?build_edges@internal_map@map@kmint@@AEAAXXZ
	?build_graph@internal_map@map@kmint@@AEAAXXZ
	?build_nodes@internal_map@map@kmint@@AEAAXXZ
	?c_str@?$basic_string@DU?$char_traits@D@std@@V?$allocator@D@2@@std@@QEBAPEBDXZ
	?capacity@?$vector@DV?$allocator@D@std@@@std@@QEBA_KXZ
	?capacity@?$vector@PEAV?$basic_node@Umap_node_info@map@kmint@@@graph@kmint@@V?$allocator@PEAV?$basic_node@Umap_node_info@map@kmint@@@graph@kmint@@@std@@@std@@QEBA_KXZ
	?capacity@?$vector@PEAVactor@play@kmint@@V?$allocator@PEAVactor@play@kmint@@@std@@@std@@QEBA_KXZ
	?capacity@?$vector@V?$unique_ptr@V?$basic_edge@Umap_node_info@map@kmint@@@graph@kmint@@U?$default_delete@V?$basic_edge@Umap_node_info@map@kmint@@@graph@kmint@@@std@@@std@@V?$allocator@V?$unique_ptr@V?$basic_edge@Umap_node_info@map@kmint@@@graph@kmint@@U?$default_delete@V?$basic_edge@Umap_node_info@map@kmint@@@graph@kmint@@@std@@@std@@@2@@std@@QEBA_KXZ
	?capacity@?$vector@V?$unique_ptr@V?$basic_edge@Uno_node_info@graph@kmint@@@graph@kmint@@U?$default_delete@V?$basic_edge@Uno_node_info@graph@kmint@@@graph@kmint@@@std@@@std@@V?$allocator@V?$unique_ptr@V?$basic_edge@Uno_node_info@graph@kmint@@@graph@kmint@@U?$default_delete@V?$basic_edge@Uno_node_info@graph@kmint@@@graph@kmint@@@std@@@std@@@2@@std@@QEBA_KXZ
	?capacity@?$vector@V?$unique_ptr@V?$basic_node@Umap_node_info@map@kmint@@@graph@kmint@@U?$default_delete@V?$basic_node@Umap_node_info@map@kmint@@@graph@kmint@@@std@@@std@@V?$allocator@V?$unique_ptr@V?$basic_node@Umap_node_info@map@kmint@@@graph@kmint@@U?$default_delete@V?$basic_node@Umap_node_info@map@kmint@@@graph@kmint@@@std@@@std@@@2@@std@@QEBA_KXZ
	?capacity@?$vector@V?$unique_ptr@V?$basic_node@Uno_node_info@graph@kmint@@@graph@kmint@@U?$default_delete@V?$basic_node@Uno_node_info@graph@kmint@@@graph@kmint@@@std@@@std@@V?$allocator@V?$unique_ptr@V?$basic_node@Uno_node_info@graph@kmint@@@graph@kmint@@U?$default_delete@V?$basic_node@Uno_node_info@graph@kmint@@@graph@kmint@@@std@@@std@@@2@@std@@QEBA_KXZ
	?cbegin@stage@play@kmint@@QEBA?AV?$wrapped_iterator@$$CBVactor@play@kmint@@V?$_Vector_const_iterator@V?$_Vector_val@U?$_Simple_types@V?$unique_ptr@Vactor@play@kmint@@U?$default_delete@Vactor@play@kmint@@@std@@@std@@@std@@@std@@@std@@@util@3@XZ
	?ceil@@YAMM@Z
	?cend@stage@play@kmint@@QEBA?AV?$wrapped_iterator@$$CBVactor@play@kmint@@V?$_Vector_const_iterator@V?$_Vector_val@U?$_Simple_types@V?$unique_ptr@Vactor@play@kmint@@U?$default_delete@Vactor@play@kmint@@@std@@@std@@@std@@@std@@@std@@@util@3@XZ
	?check_interactions@stage@play@kmint@@AEAAXXZ
	?clear@?$_Hash@V?$_Umap_traits@DV?$vector@PEAV?$basic_node@Umap_node_info@map@kmint@@@graph@kmint@@V?$allocator@PEAV?$basic_node@Umap_node_info@map@kmint@@@graph@kmint@@@std@@@std@@V?$_Uhash_compare@DU?$hash@D@std@@U?$equal_to@D@2@@2@V?$allocator@U?$pair@$$CBDV?$vector@PEAV?$basic_node@Umap_node_info@map@kmint@@@graph@kmint@@V?$allocator@PEAV?$basic_node@Umap_node_info@map@kmint@@@graph@kmint@@@std@@@std@@@std@@@2@$0A@@std@@@std@@QEAAXXZ
	?clear@?$list@U?$pair@$$CBDV?$vector@PEAV?$basic_node@Umap_node_info@map@kmint@@@graph@kmint@@V?$allocator@PEAV?$basic_node@Umap_node_info@map@kmint@@@graph@kmint@@@std@@@std@@@std@@V?$allocator@U?$pair@$$CBDV?$vector@PEAV?$basic_node@Umap_node_info@map@kmint@@@graph@kmint@@V?$allocator@PEAV?$basic_node@Umap_node_info@map@kmint@@@graph@kmint@@@std@@@std@@@std@@@2@@std@@QEAAXXZ
	?clear@?$vector@PEAVactor@play@kmint@@V?$allocator@PEAVactor@play@kmint@@@std@@@std@@QEAAXXZ
	?collision_adder@actor@play@kmint@@QEAA?AVadd_collision_iterator@23@XZ
	?collision_box@actor@play@kmint@@QEBA?AV?$basic_rectangle@M@math@3@XZ
	?compare@?$_Narrow_char_traits@DH@std@@SAHQEBD0_K@Z
	?compare@?$basic_string@DU?$char_traits@D@std@@V?$allocator@D@2@@std@@QEBAHAEBV12@@Z
	?copy@?$_Narrow_char_traits@DH@std@@SAPEADQEADQEBD_K@Z
	?cos@@YAMM@Z
	?cos@math@kmint@@YAMVangle@12@@Z
	?deallocate@?$_Default_allocator_traits@V?$allocator@U?$_List_node@U?$pair@$$CBDV?$vector@PEAV?$basic_node@Umap_node_info@map@kmint@@@graph@kmint@@V?$allocator@PEAV?$basic_node@Umap_node_info@map@kmint@@@graph@kmint@@@std@@@std@@@std@@PEAX@std@@@std@@@std@@SAXAEAV?$allocator@U?$_List_node@U?$pair@$$CBDV?$vector@PEAV?$basic_node@Umap_node_info@map@kmint@@@graph@kmint@@V?$allocator@PEAV?$basic_node@Umap_node_info@map@kmint@@@graph@kmint@@@std@@@std@@@std@@PEAX@std@@@2@QEAU?$_List_node@U?$pair@$$CBDV?$vector@PEAV?$basic_node@Umap_node_info@map@kmint@@@graph@kmint@@V?$allocator@PEAV?$basic_node@Umap_node_info@map@kmint@@@graph@kmint@@@std@@@std@@@std@@PEAX@2@_K@Z
	?deallocate@?$_Default_allocator_traits@V?$allocator@U?$_Tree_node@U?$pair@$$CBDUtile_info@map@kmint@@@std@@PEAX@std@@@std@@@std@@SAXAEAV?$allocator@U?$_Tree_node@U?$pair@$$CBDUtile_info@map@kmint@@@std@@PEAX@std@@@2@QEAU?$_Tree_node@U?$pair@$$CBDUtile_info@map@kmint@@@std@@PEAX@2@_K@Z
	?deallocate@?$_Default_allocator_traits@V?$allocator@U?$_Tree_node@U?$pair@$$CBV?$basic_string@DU?$char_traits@D@std@@V?$allocator@D@2@@std@@Vtexture@sdl@ui@kmint@@@std@@PEAX@std@@@std@@@std@@SAXAEAV?$allocator@U?$_Tree_node@U?$pair@$$CBV?$basic_string@DU?$char_traits@D@std@@V?$allocator@D@2@@std@@Vtexture@sdl@ui@kmint@@@std@@PEAX@std@@@2@QEAU?$_Tree_node@U?$pair@$$CBV?$basic_string@DU?$char_traits@D@std@@V?$allocator@D@2@@std@@Vtexture@sdl@ui@kmint@@@std@@PEAX@2@_K@Z
	?deallocate@?$_Default_allocator_traits@V?$allocator@U_Container_proxy@std@@@std@@@std@@SAXAEAV?$allocator@U_Container_proxy@std@@@2@QEAU_Container_proxy@2@_K@Z
	?deallocate@?$allocator@D@std@@QEAAXQEAD_K@Z
	?deallocate@?$allocator@H@std@@QEAAXQEAH_K@Z
	?deallocate@?$allocator@PEAV?$basic_node@Umap_node_info@map@kmint@@@graph@kmint@@@std@@QEAAXQEAPEAV?$basic_node@Umap_node_info@map@kmint@@@graph@kmint@@_K@Z
	?deallocate@?$allocator@PEAVactor@play@kmint@@@std@@QEAAXQEAPEAVactor@play@kmint@@_K@Z
	?deallocate@?$allocator@U?$_List_node@U?$pair@$$CBDV?$vector@PEAV?$basic_node@Umap_node_info@map@kmint@@@graph@kmint@@V?$allocator@PEAV?$basic_node@Umap_node_info@map@kmint@@@graph@kmint@@@std@@@std@@@std@@PEAX@std@@@std@@QEAAXQEAU?$_List_node@U?$pair@$$CBDV?$vector@PEAV?$basic_node@Umap_node_info@map@kmint@@@graph@kmint@@V?$allocator@PEAV?$basic_node@Umap_node_info@map@kmint@@@graph@kmint@@@std@@@std@@@std@@PEAX@2@_K@Z
	?deallocate@?$allocator@U?$_Tree_node@U?$pair@$$CBDUtile_info@map@kmint@@@std@@PEAX@std@@@std@@QEAAXQEAU?$_Tree_node@U?$pair@$$CBDUtile_info@map@kmint@@@std@@PEAX@2@_K@Z
	?deallocate@?$allocator@U?$_Tree_node@U?$pair@$$CBV?$basic_string@DU?$char_traits@D@std@@V?$allocator@D@2@@std@@Vtexture@sdl@ui@kmint@@@std@@PEAX@std@@@std@@QEAAXQEAU?$_Tree_node@U?$pair@$$CBV?$basic_string@DU?$char_traits@D@std@@V?$allocator@D@2@@std@@Vtexture@sdl@ui@kmint@@@std@@PEAX@2@_K@Z
	?deallocate@?$allocator@V?$_List_unchecked_iterator@V?$_List_val@U?$_List_simple_types@U?$pair@$$CBDV?$vector@PEAV?$basic_node@Umap_node_info@map@kmint@@@graph@kmint@@V?$allocator@PEAV?$basic_node@Umap_node_info@map@kmint@@@graph@kmint@@@std@@@std@@@std@@@std@@@std@@@std@@@std@@QEAAXQEAV?$_List_unchecked_iterator@V?$_List_val@U?$_List_simple_types@U?$pair@$$CBDV?$vector@PEAV?$basic_node@Umap_node_info@map@kmint@@@graph@kmint@@V?$allocator@PEAV?$basic_node@Umap_node_info@map@kmint@@@graph@kmint@@@std@@@std@@@std@@@std@@@std@@@2@_K@Z
	?deallocate@?$allocator@V?$unique_ptr@V?$basic_edge@Umap_node_info@map@kmint@@@graph@kmint@@U?$default_delete@V?$basic_edge@Umap_node_info@map@kmint@@@graph@kmint@@@std@@@std@@@std@@QEAAXQEAV?$unique_ptr@V?$basic_edge@Umap_node_info@map@kmint@@@graph@kmint@@U?$default_delete@V?$basic_edge@Umap_node_info@map@kmint@@@graph@kmint@@@std@@@2@_K@Z
	?deallocate@?$allocator@V?$unique_ptr@V?$basic_edge@Uno_node_info@graph@kmint@@@graph@kmint@@U?$default_delete@V?$basic_edge@Uno_node_info@graph@kmint@@@graph@kmint@@@std@@@std@@@std@@QEAAXQEAV?$unique_ptr@V?$basic_edge@Uno_node_info@graph@kmint@@@graph@kmint@@U?$default_delete@V?$basic_edge@Uno_node_info@graph@kmint@@@graph@kmint@@@std@@@2@_K@Z
	?deallocate@?$allocator@V?$unique_ptr@V?$basic_node@Umap_node_info@map@kmint@@@graph@kmint@@U?$default_delete@V?$basic_node@Umap_node_info@map@kmint@@@graph@kmint@@@std@@@std@@@std@@QEAAXQEAV?$unique_ptr@V?$basic_node@Umap_node_info@map@kmint@@@graph@kmint@@U?$default_delete@V?$basic_node@Umap_node_info@map@kmint@@@graph@kmint@@@std@@@2@_K@Z
	?deallocate@?$allocator@V?$unique_ptr@V?$basic_node@Uno_node_info@graph@kmint@@@graph@kmint@@U?$default_delete@V?$basic_node@Uno_node_info@graph@kmint@@@graph@kmint@@@std@@@std@@@std@@QEAAXQEAV?$unique_ptr@V?$basic_node@Uno_node_info@graph@kmint@@@graph@kmint@@U?$default_delete@V?$basic_node@Uno_node_info@graph@kmint@@@graph@kmint@@@std@@@2@_K@Z
	?destroy@?$destroyer@USDL_Renderer@@@sdl@ui@kmint@@CAXPEAUSDL_Renderer@@@Z
	?destroy@?$destroyer@USDL_Surface@@@sdl@ui@kmint@@CAXPEAUSDL_Surface@@@Z
	?destroy@?$destroyer@USDL_Texture@@@sdl@ui@kmint@@CAXPEAUSDL_Texture@@@Z
	?destroy@?$destroyer@USDL_Window@@@sdl@ui@kmint@@CAXPEAUSDL_Window@@@Z
	?draw@image_drawable@play@kmint@@UEBAXAEAVframe@ui@3@@Z
	?draw_image@frame@ui@kmint@@QEAAXV?$basic_vector2d@M@math@3@AEBVimage@graphics@3@@Z
	?draw_image@frame@ui@kmint@@QEAAXV?$basic_vector2d@M@math@3@AEBVimage@graphics@3@Vcolor@73@@Z
	?draw_line@frame@ui@kmint@@QEAAXU?$basic_line_segment@M@math@3@@Z
	?draw_line@frame@ui@kmint@@QEAAXV?$basic_vector2d@M@math@3@0@Z
	?draw_rectangle@frame@ui@kmint@@QEAAXV?$basic_vector2d@M@math@3@V?$basic_size@M@53@AEBVcolor@graphics@3@@Z
	?empty@?$basic_string@DU?$char_traits@D@std@@V?$allocator@D@2@@std@@QEBA_NXZ
	?empty_collisions@actor@play@kmint@@QEAAXXZ
	?empty_perceived@actor@play@kmint@@QEAAXXZ
	?end@?$_Tree@V?$_Tmap_traits@V?$basic_string@DU?$char_traits@D@std@@V?$allocator@D@2@@std@@Vtexture@sdl@ui@kmint@@U?$less@V?$basic_string@DU?$char_traits@D@std@@V?$allocator@D@2@@std@@@2@V?$allocator@U?$pair@$$CBV?$basic_string@DU?$char_traits@D@std@@V?$allocator@D@2@@std@@Vtexture@sdl@ui@kmint@@@std@@@2@$0A@@std@@@std@@QEAA?AV?$_Tree_iterator@V?$_Tree_val@U?$_Tree_simple_types@U?$pair@$$CBV?$basic_string@DU?$char_traits@D@std@@V?$allocator@D@2@@std@@Vtexture@sdl@ui@kmint@@@std@@@std@@@std@@@2@XZ
	?end@?$basic_graph@Umap_node_info@map@kmint@@@graph@kmint@@QEAA?AV?$wrapped_iterator@V?$basic_node@Umap_node_info@map@kmint@@@graph@kmint@@V?$_Vector_iterator@V?$_Vector_val@U?$_Simple_types@V?$unique_ptr@V?$basic_node@Umap_node_info@map@kmint@@@graph@kmint@@U?$default_delete@V?$basic_node@Umap_node_info@map@kmint@@@graph@kmint@@@std@@@std@@@std@@@std@@@std@@@util@3@XZ
	?end@?$vector@V?$unique_ptr@V?$basic_node@Umap_node_info@map@kmint@@@graph@kmint@@U?$default_delete@V?$basic_node@Umap_node_info@map@kmint@@@graph@kmint@@@std@@@std@@V?$allocator@V?$unique_ptr@V?$basic_node@Umap_node_info@map@kmint@@@graph@kmint@@U?$default_delete@V?$basic_node@Umap_node_info@map@kmint@@@graph@kmint@@@std@@@std@@@2@@std@@QEAA?AV?$_Vector_iterator@V?$_Vector_val@U?$_Simple_types@V?$unique_ptr@V?$basic_node@Umap_node_info@map@kmint@@@graph@kmint@@U?$default_delete@V?$basic_node@Umap_node_info@map@kmint@@@graph@kmint@@@std@@@std@@@std@@@std@@@2@XZ
	?end@?$vector@V?$unique_ptr@Vactor@play@kmint@@U?$default_delete@Vactor@play@kmint@@@std@@@std@@V?$allocator@V?$unique_ptr@Vactor@play@kmint@@U?$default_delete@Vactor@play@kmint@@@std@@@std@@@2@@std@@QEAA?AV?$_Vector_iterator@V?$_Vector_val@U?$_Simple_types@V?$unique_ptr@Vactor@play@kmint@@U?$default_delete@Vactor@play@kmint@@@std@@@std@@@std@@@std@@@2@XZ
	?end@?$vector@V?$unique_ptr@Vactor@play@kmint@@U?$default_delete@Vactor@play@kmint@@@std@@@std@@V?$allocator@V?$unique_ptr@Vactor@play@kmint@@U?$default_delete@Vactor@play@kmint@@@std@@@std@@@2@@std@@QEBA?AV?$_Vector_const_iterator@V?$_Vector_val@U?$_Simple_types@V?$unique_ptr@Vactor@play@kmint@@U?$default_delete@Vactor@play@kmint@@@std@@@std@@@std@@@std@@@2@XZ
	?end@stage@play@kmint@@QEAA?AV?$wrapped_iterator@Vactor@play@kmint@@V?$_Vector_iterator@V?$_Vector_val@U?$_Simple_types@V?$unique_ptr@Vactor@play@kmint@@U?$default_delete@Vactor@play@kmint@@@std@@@std@@@std@@@std@@@std@@@util@3@XZ
	?end@stage@play@kmint@@QEBA?AV?$wrapped_iterator@$$CBVactor@play@kmint@@V?$_Vector_const_iterator@V?$_Vector_val@U?$_Simple_types@V?$unique_ptr@Vactor@play@kmint@@U?$default_delete@Vactor@play@kmint@@@std@@@std@@@std@@@std@@@std@@@util@3@XZ
	?end_frame@renderer@ui@kmint@@QEAAXXZ
	?eof@?$_Narrow_char_traits@DH@std@@SAHXZ
	?eq@?$_Narrow_char_traits@DH@std@@SA_NAEBD0@Z
	?eq_int_type@?$_Narrow_char_traits@DH@std@@SA_NAEBH0@Z
	?erase@?$basic_string@DU?$char_traits@D@std@@V?$allocator@D@2@@std@@QEAAAEAV12@_K@Z
	?erase@?$vector@V?$unique_ptr@Vactor@play@kmint@@U?$default_delete@Vactor@play@kmint@@@std@@@std@@V?$allocator@V?$unique_ptr@Vactor@play@kmint@@U?$default_delete@Vactor@play@kmint@@@std@@@std@@@2@@std@@QEAA?AV?$_Vector_iterator@V?$_Vector_val@U?$_Simple_types@V?$unique_ptr@Vactor@play@kmint@@U?$default_delete@Vactor@play@kmint@@@std@@@std@@@std@@@std@@@2@V?$_Vector_const_iterator@V?$_Vector_val@U?$_Simple_types@V?$unique_ptr@Vactor@play@kmint@@U?$default_delete@Vactor@play@kmint@@@std@@@std@@@std@@@std@@@2@0@Z
	?erase@?$vector@V?$unique_ptr@Vactor@play@kmint@@U?$default_delete@Vactor@play@kmint@@@std@@@std@@V?$allocator@V?$unique_ptr@Vactor@play@kmint@@U?$default_delete@Vactor@play@kmint@@@std@@@std@@@2@@std@@QEAA?AV?$_Vector_iterator@V?$_Vector_val@U?$_Simple_types@V?$unique_ptr@Vactor@play@kmint@@U?$default_delete@Vactor@play@kmint@@@std@@@std@@@std@@@std@@@2@V?$_Vector_const_iterator@V?$_Vector_val@U?$_Simple_types@V?$unique_ptr@Vactor@play@kmint@@U?$default_delete@Vactor@play@kmint@@@std@@@std@@@std@@@std@@@2@@Z
	?filename@image@graphics@kmint@@QEBAAEBV?$basic_string@DU?$char_traits@D@std@@V?$allocator@D@2@@std@@XZ
	?find@?$_Tree@V?$_Tmap_traits@V?$basic_string@DU?$char_traits@D@std@@V?$allocator@D@2@@std@@Vtexture@sdl@ui@kmint@@U?$less@V?$basic_string@DU?$char_traits@D@std@@V?$allocator@D@2@@std@@@2@V?$allocator@U?$pair@$$CBV?$basic_string@DU?$char_traits@D@std@@V?$allocator@D@2@@std@@Vtexture@sdl@ui@kmint@@@std@@@2@$0A@@std@@@std@@QEAA?AV?$_Tree_iterator@V?$_Tree_val@U?$_Tree_simple_types@U?$pair@$$CBV?$basic_string@DU?$char_traits@D@std@@V?$allocator@D@2@@std@@Vtexture@sdl@ui@kmint@@@std@@@std@@@std@@@2@AEBV?$basic_string@DU?$char_traits@D@std@@V?$allocator@D@2@@2@@Z
	?get@?$unique_ptr@USDL_Renderer@@V?$destroyer@USDL_Renderer@@@sdl@ui@kmint@@@std@@QEBAPEAUSDL_Renderer@@XZ
	?get@?$unique_ptr@USDL_Surface@@V?$destroyer@USDL_Surface@@@sdl@ui@kmint@@@std@@QEBAPEAUSDL_Surface@@XZ
	?get@?$unique_ptr@USDL_Texture@@V?$destroyer@USDL_Texture@@@sdl@ui@kmint@@@std@@QEBAPEAUSDL_Texture@@XZ
	?get@?$unique_ptr@USDL_Window@@V?$destroyer@USDL_Window@@@sdl@ui@kmint@@@std@@QEBAPEAUSDL_Window@@XZ
	?get@?$unique_ptr@Vactor@play@kmint@@U?$default_delete@Vactor@play@kmint@@@std@@@std@@QEBAPEAVactor@play@kmint@@XZ
	?get_allocator@?$basic_string@DU?$char_traits@D@std@@V?$allocator@D@2@@std@@QEBA?AV?$allocator@D@2@XZ
	?get_deleter@?$unique_ptr@USDL_Texture@@V?$destroyer@USDL_Texture@@@sdl@ui@kmint@@@std@@QEAAAEAV?$destroyer@USDL_Texture@@@sdl@ui@kmint@@XZ
	?get_deleter@?$unique_ptr@Uimpl@frame@ui@kmint@@U?$default_delete@Uimpl@frame@ui@kmint@@@std@@@std@@QEAAAEAU?$default_delete@Uimpl@frame@ui@kmint@@@2@XZ
	?get_deleter@?$unique_ptr@V?$basic_edge@Umap_node_info@map@kmint@@@graph@kmint@@U?$default_delete@V?$basic_edge@Umap_node_info@map@kmint@@@graph@kmint@@@std@@@std@@QEAAAEAU?$default_delete@V?$basic_edge@Umap_node_info@map@kmint@@@graph@kmint@@@2@XZ
	?get_deleter@?$unique_ptr@V?$basic_edge@Uno_node_info@graph@kmint@@@graph@kmint@@U?$default_delete@V?$basic_edge@Uno_node_info@graph@kmint@@@graph@kmint@@@std@@@std@@QEAAAEAU?$default_delete@V?$basic_edge@Uno_node_info@graph@kmint@@@graph@kmint@@@2@XZ
	?get_deleter@?$unique_ptr@V?$basic_node@Umap_node_info@map@kmint@@@graph@kmint@@U?$default_delete@V?$basic_node@Umap_node_info@map@kmint@@@graph@kmint@@@std@@@std@@QEAAAEAU?$default_delete@V?$basic_node@Umap_node_info@map@kmint@@@graph@kmint@@@2@XZ
	?get_deleter@?$unique_ptr@V?$basic_node@Uno_node_info@graph@kmint@@@graph@kmint@@U?$default_delete@V?$basic_node@Uno_node_info@graph@kmint@@@graph@kmint@@@std@@@std@@QEAAAEAU?$default_delete@V?$basic_node@Uno_node_info@graph@kmint@@@graph@kmint@@@2@XZ
	?get_deleter@?$unique_ptr@V?$quad_tree@$03@play@kmint@@U?$default_delete@V?$quad_tree@$03@play@kmint@@@std@@@std@@QEAAAEAU?$default_delete@V?$quad_tree@$03@play@kmint@@@2@XZ
	?get_deleter@?$unique_ptr@Vimpl@app@ui@kmint@@U?$default_delete@Vimpl@app@ui@kmint@@@std@@@std@@QEAAAEAU?$default_delete@Vimpl@app@ui@kmint@@@2@XZ
	?get_deleter@?$unique_ptr@Vimpl@window@ui@kmint@@U?$default_delete@Vimpl@window@ui@kmint@@@std@@@std@@QEAAAEAU?$default_delete@Vimpl@window@ui@kmint@@@2@XZ
	?get_or_load@renderer@ui@kmint@@AEAAAEAVtexture@sdl@23@AEBVimage@graphics@3@@Z
	?get_renderer@impl@window@ui@kmint@@QEAAAEAVrenderer@34@XZ
	?graph@internal_map@map@kmint@@QEAAAEAV?$basic_graph@Umap_node_info@map@kmint@@@03@XZ
	?green@color@graphics@kmint@@QEBAEXZ
	?header@map_info@map@kmint@@QEBAAEBUmap_header@23@XZ
	?height@?$basic_size@H@math@kmint@@QEAAXH@Z
	?height@?$basic_size@H@math@kmint@@QEBAHXZ
	?height@?$basic_size@M@math@kmint@@QEBAMXZ
	?height@internal_map@map@kmint@@QEBAHXZ
	?height@surface@sdl@ui@kmint@@QEBAMXZ
	?height@texture@sdl@ui@kmint@@QEBAMXZ
	?index@?$_Variant_base@Ufree@?$quad_tree@$03@play@kmint@@Usaturated@234@@std@@QEBA_KXZ
	?index_for@?$quad_tree@$03@play@kmint@@AEAA_KAEAVactor@23@@Z
	?info@internal_map@map@kmint@@QEAAAEAVmap_info@23@XZ
	?key_comp@?$_Tree@V?$_Tmap_traits@DUtile_info@map@kmint@@U?$less@D@std@@V?$allocator@U?$pair@$$CBDUtile_info@map@kmint@@@std@@@5@$0A@@std@@@std@@QEBA?AU?$less@D@2@XZ
	?length@?$_Narrow_char_traits@DH@std@@SA_KQEBD@Z
	?log2@@YAMM@Z
	?max@?$mersenne_twister_engine@I$0CA@$0CHA@$0BIN@$0BP@$0JJAILANP@$0L@$0PPPPPPPP@$06$0JNCMFGIA@$0P@$0OPMGAAAA@$0BC@$0GMAHIJGF@@std@@SAIXZ
	?max@?$numeric_limits@M@std@@SAMXZ
	?max@?$numeric_limits@_J@std@@SA_JXZ
	?max_load_factor@?$_Hash@V?$_Umap_traits@DV?$vector@PEAV?$basic_node@Umap_node_info@map@kmint@@@graph@kmint@@V?$allocator@PEAV?$basic_node@Umap_node_info@map@kmint@@@graph@kmint@@@std@@@std@@V?$_Uhash_compare@DU?$hash@D@std@@U?$equal_to@D@2@@2@V?$allocator@U?$pair@$$CBDV?$vector@PEAV?$basic_node@Umap_node_info@map@kmint@@@graph@kmint@@V?$allocator@PEAV?$basic_node@Umap_node_info@map@kmint@@@graph@kmint@@@std@@@std@@@std@@@2@$0A@@std@@@std@@QEBAMXZ
	?max_size@?$_Default_allocator_traits@V?$allocator@D@std@@@std@@SA_KAEBV?$allocator@D@2@@Z
	?max_size@?$_Default_allocator_traits@V?$allocator@H@std@@@std@@SA_KAEBV?$allocator@H@2@@Z
	?max_size@?$_Default_allocator_traits@V?$allocator@PEAV?$basic_node@Umap_node_info@map@kmint@@@graph@kmint@@@std@@@std@@SA_KAEBV?$allocator@PEAV?$basic_node@Umap_node_info@map@kmint@@@graph@kmint@@@2@@Z
	?max_size@?$_Default_allocator_traits@V?$allocator@PEAVactor@play@kmint@@@std@@@std@@SA_KAEBV?$allocator@PEAVactor@play@kmint@@@2@@Z
	?max_size@?$_Default_allocator_traits@V?$allocator@U?$_List_node@U?$pair@$$CBDV?$vector@PEAV?$basic_node@Umap_node_info@map@kmint@@@graph@kmint@@V?$allocator@PEAV?$basic_node@Umap_node_info@map@kmint@@@graph@kmint@@@std@@@std@@@std@@PEAX@std@@@std@@@std@@SA_KAEBV?$allocator@U?$_List_node@U?$pair@$$CBDV?$vector@PEAV?$basic_node@Umap_node_info@map@kmint@@@graph@kmint@@V?$allocator@PEAV?$basic_node@Umap_node_info@map@kmint@@@graph@kmint@@@std@@@std@@@std@@PEAX@std@@@2@@Z
	?max_size@?$_Default_allocator_traits@V?$allocator@U?$_Tree_node@U?$pair@$$CBDUtile_info@map@kmint@@@std@@PEAX@std@@@std@@@std@@SA_KAEBV?$allocator@U?$_Tree_node@U?$pair@$$CBDUtile_info@map@kmint@@@std@@PEAX@std@@@2@@Z
	?max_size@?$_Default_allocator_traits@V?$allocator@U?$_Tree_node@U?$pair@$$CBV?$basic_string@DU?$char_traits@D@std@@V?$allocator@D@2@@std@@Vtexture@sdl@ui@kmint@@@std@@PEAX@std@@@std@@@std@@SA_KAEBV?$allocator@U?$_Tree_node@U?$pair@$$CBV?$basic_string@DU?$char_traits@D@std@@V?$allocator@D@2@@std@@Vtexture@sdl@ui@kmint@@@std@@PEAX@std@@@2@@Z
	?max_size@?$_Default_allocator_traits@V?$allocator@V?$_List_unchecked_iterator@V?$_List_val@U?$_List_simple_types@U?$pair@$$CBDV?$vector@PEAV?$basic_node@Umap_node_info@map@kmint@@@graph@kmint@@V?$allocator@PEAV?$basic_node@Umap_node_info@map@kmint@@@graph@kmint@@@std@@@std@@@std@@@std@@@std@@@std@@@std@@@std@@SA_KAEBV?$allocator@V?$_List_unchecked_iterator@V?$_List_val@U?$_List_simple_types@U?$pair@$$CBDV?$vector@PEAV?$basic_node@Umap_node_info@map@kmint@@@graph@kmint@@V?$allocator@PEAV?$basic_node@Umap_node_info@map@kmint@@@graph@kmint@@@std@@@std@@@std@@@std@@@std@@@std@@@2@@Z
	?max_size@?$_Default_allocator_traits@V?$allocator@V?$unique_ptr@V?$basic_edge@Umap_node_info@map@kmint@@@graph@kmint@@U?$default_delete@V?$basic_edge@Umap_node_info@map@kmint@@@graph@kmint@@@std@@@std@@@std@@@std@@SA_KAEBV?$allocator@V?$unique_ptr@V?$basic_edge@Umap_node_info@map@kmint@@@graph@kmint@@U?$default_delete@V?$basic_edge@Umap_node_info@map@kmint@@@graph@kmint@@@std@@@std@@@2@@Z
	?max_size@?$_Default_allocator_traits@V?$allocator@V?$unique_ptr@V?$basic_edge@Uno_node_info@graph@kmint@@@graph@kmint@@U?$default_delete@V?$basic_edge@Uno_node_info@graph@kmint@@@graph@kmint@@@std@@@std@@@std@@@std@@SA_KAEBV?$allocator@V?$unique_ptr@V?$basic_edge@Uno_node_info@graph@kmint@@@graph@kmint@@U?$default_delete@V?$basic_edge@Uno_node_info@graph@kmint@@@graph@kmint@@@std@@@std@@@2@@Z
	?max_size@?$_Default_allocator_traits@V?$allocator@V?$unique_ptr@V?$basic_node@Umap_node_info@map@kmint@@@graph@kmint@@U?$default_delete@V?$basic_node@Umap_node_info@map@kmint@@@graph@kmint@@@std@@@std@@@std@@@std@@SA_KAEBV?$allocator@V?$unique_ptr@V?$basic_node@Umap_node_info@map@kmint@@@graph@kmint@@U?$default_delete@V?$basic_node@Umap_node_info@map@kmint@@@graph@kmint@@@std@@@std@@@2@@Z
	?max_size@?$_Default_allocator_traits@V?$allocator@V?$unique_ptr@V?$basic_node@Uno_node_info@graph@kmint@@@graph@kmint@@U?$default_delete@V?$basic_node@Uno_node_info@graph@kmint@@@graph@kmint@@@std@@@std@@@std@@@std@@SA_KAEBV?$allocator@V?$unique_ptr@V?$basic_node@Uno_node_info@graph@kmint@@@graph@kmint@@U?$default_delete@V?$basic_node@Uno_node_info@graph@kmint@@@graph@kmint@@@std@@@std@@@2@@Z
	?max_size@?$_Hash_vec@V?$allocator@V?$_List_unchecked_iterator@V?$_List_val@U?$_List_simple_types@U?$pair@$$CBDV?$vector@PEAV?$basic_node@Umap_node_info@map@kmint@@@graph@kmint@@V?$allocator@PEAV?$basic_node@Umap_node_info@map@kmint@@@graph@kmint@@@std@@@std@@@std@@@std@@@std@@@std@@@std@@@std@@QEBA_KXZ
	?max_size@?$_Tree@V?$_Tmap_traits@DUtile_info@map@kmint@@U?$less@D@std@@V?$allocator@U?$pair@$$CBDUtile_info@map@kmint@@@std@@@5@$0A@@std@@@std@@QEBA_KXZ
	?max_size@?$_Tree@V?$_Tmap_traits@V?$basic_string@DU?$char_traits@D@std@@V?$allocator@D@2@@std@@Vtexture@sdl@ui@kmint@@U?$less@V?$basic_string@DU?$char_traits@D@std@@V?$allocator@D@2@@std@@@2@V?$allocator@U?$pair@$$CBV?$basic_string@DU?$char_traits@D@std@@V?$allocator@D@2@@std@@Vtexture@sdl@ui@kmint@@@std@@@2@$0A@@std@@@std@@QEBA_KXZ
	?max_size@?$basic_string@DU?$char_traits@D@std@@V?$allocator@D@2@@std@@QEBA_KXZ
	?max_size@?$list@U?$pair@$$CBDV?$vector@PEAV?$basic_node@Umap_node_info@map@kmint@@@graph@kmint@@V?$allocator@PEAV?$basic_node@Umap_node_info@map@kmint@@@graph@kmint@@@std@@@std@@@std@@V?$allocator@U?$pair@$$CBDV?$vector@PEAV?$basic_node@Umap_node_info@map@kmint@@@graph@kmint@@V?$allocator@PEAV?$basic_node@Umap_node_info@map@kmint@@@graph@kmint@@@std@@@std@@@std@@@2@@std@@QEBA_KXZ
	?max_size@?$vector@DV?$allocator@D@std@@@std@@QEBA_KXZ
	?max_size@?$vector@HV?$allocator@H@std@@@std@@QEBA_KXZ
	?max_size@?$vector@PEAV?$basic_node@Umap_node_info@map@kmint@@@graph@kmint@@V?$allocator@PEAV?$basic_node@Umap_node_info@map@kmint@@@graph@kmint@@@std@@@std@@QEBA_KXZ
	?max_size@?$vector@PEAVactor@play@kmint@@V?$allocator@PEAVactor@play@kmint@@@std@@@std@@QEBA_KXZ
	?max_size@?$vector@V?$unique_ptr@V?$basic_edge@Umap_node_info@map@kmint@@@graph@kmint@@U?$default_delete@V?$basic_edge@Umap_node_info@map@kmint@@@graph@kmint@@@std@@@std@@V?$allocator@V?$unique_ptr@V?$basic_edge@Umap_node_info@map@kmint@@@graph@kmint@@U?$default_delete@V?$basic_edge@Umap_node_info@map@kmint@@@graph@kmint@@@std@@@std@@@2@@std@@QEBA_KXZ
	?max_size@?$vector@V?$unique_ptr@V?$basic_edge@Uno_node_info@graph@kmint@@@graph@kmint@@U?$default_delete@V?$basic_edge@Uno_node_info@graph@kmint@@@graph@kmint@@@std@@@std@@V?$allocator@V?$unique_ptr@V?$basic_edge@Uno_node_info@graph@kmint@@@graph@kmint@@U?$default_delete@V?$basic_edge@Uno_node_info@graph@kmint@@@graph@kmint@@@std@@@std@@@2@@std@@QEBA_KXZ
	?max_size@?$vector@V?$unique_ptr@V?$basic_node@Umap_node_info@map@kmint@@@graph@kmint@@U?$default_delete@V?$basic_node@Umap_node_info@map@kmint@@@graph@kmint@@@std@@@std@@V?$allocator@V?$unique_ptr@V?$basic_node@Umap_node_info@map@kmint@@@graph@kmint@@U?$default_delete@V?$basic_node@Umap_node_info@map@kmint@@@graph@kmint@@@std@@@std@@@2@@std@@QEBA_KXZ
	?max_size@?$vector@V?$unique_ptr@V?$basic_node@Uno_node_info@graph@kmint@@@graph@kmint@@U?$default_delete@V?$basic_node@Uno_node_info@graph@kmint@@@graph@kmint@@@std@@@std@@V?$allocator@V?$unique_ptr@V?$basic_node@Uno_node_info@graph@kmint@@@graph@kmint@@U?$default_delete@V?$basic_node@Uno_node_info@graph@kmint@@@graph@kmint@@@std@@@std@@@2@@std@@QEBA_KXZ
	?min@?$mersenne_twister_engine@I$0CA@$0CHA@$0BIN@$0BP@$0JJAILANP@$0L@$0PPPPPPPP@$06$0JNCMFGIA@$0P@$0OPMGAAAA@$0BC@$0GMAHIJGF@@std@@SAIXZ
	?move@?$_Narrow_char_traits@DH@std@@SAPEADQEADQEBD_K@Z
	?next@event_source@events@ui@kmint@@QEBA?AVevent@234@XZ
	?node_info@?$basic_node@Umap_node_info@map@kmint@@@graph@kmint@@QEAAAEAUmap_node_info@map@3@XZ
	?not_eof@?$_Narrow_char_traits@DH@std@@SAHAEBH@Z
	?num_nodes@?$basic_graph@Umap_node_info@map@kmint@@@graph@kmint@@QEBA_KXZ
	?num_nodes@?$basic_graph@Uno_node_info@graph@kmint@@@graph@kmint@@QEBA_KXZ
	?number_of_tiles@map_header@map@kmint@@QEBAHXZ
	?overflow@?$basic_stringbuf@DU?$char_traits@D@std@@V?$allocator@D@2@@std@@MEAAHH@Z
	?pbackfail@?$basic_stringbuf@DU?$char_traits@D@std@@V?$allocator@D@2@@std@@MEAAHH@Z
	?perceived_adder@actor@play@kmint@@QEAA?AVadd_perceived_iterator@23@XZ
	?perception_box@actor@play@kmint@@QEBA?AV?$basic_rectangle@M@math@3@XZ
	?pointer_to@?$pointer_traits@PEAD@std@@SAPEADAEAD@Z
	?pointer_to@?$pointer_traits@PEAU?$pair@$$CBV?$basic_string@DU?$char_traits@D@std@@V?$allocator@D@2@@std@@Vtexture@sdl@ui@kmint@@@std@@@std@@SAPEAU?$pair@$$CBV?$basic_string@DU?$char_traits@D@std@@V?$allocator@D@2@@std@@Vtexture@sdl@ui@kmint@@@2@AEAU32@@Z
	?push_back@?$basic_string@DU?$char_traits@D@std@@V?$allocator@D@2@@std@@QEAAXD@Z
	?push_back@?$vector@DV?$allocator@D@std@@@std@@QEAAXAEBD@Z
	?push_back@?$vector@PEAV?$basic_node@Umap_node_info@map@kmint@@@graph@kmint@@V?$allocator@PEAV?$basic_node@Umap_node_info@map@kmint@@@graph@kmint@@@std@@@std@@QEAAX$$QEAPEAV?$basic_node@Umap_node_info@map@kmint@@@graph@kmint@@@Z
	?push_back@?$vector@PEAVactor@play@kmint@@V?$allocator@PEAVactor@play@kmint@@@std@@@std@@QEAAX$$QEAPEAVactor@play@kmint@@@Z
	?push_back@?$vector@PEAVactor@play@kmint@@V?$allocator@PEAVactor@play@kmint@@@std@@@std@@QEAAXAEBQEAVactor@play@kmint@@@Z
	?push_back@?$vector@V?$unique_ptr@V?$basic_edge@Umap_node_info@map@kmint@@@graph@kmint@@U?$default_delete@V?$basic_edge@Umap_node_info@map@kmint@@@graph@kmint@@@std@@@std@@V?$allocator@V?$unique_ptr@V?$basic_edge@Umap_node_info@map@kmint@@@graph@kmint@@U?$default_delete@V?$basic_edge@Umap_node_info@map@kmint@@@graph@kmint@@@std@@@std@@@2@@std@@QEAAX$$QEAV?$unique_ptr@V?$basic_edge@Umap_node_info@map@kmint@@@graph@kmint@@U?$default_delete@V?$basic_edge@Umap_node_info@map@kmint@@@graph@kmint@@@std@@@2@@Z
	?push_back@?$vector@V?$unique_ptr@V?$basic_edge@Uno_node_info@graph@kmint@@@graph@kmint@@U?$default_delete@V?$basic_edge@Uno_node_info@graph@kmint@@@graph@kmint@@@std@@@std@@V?$allocator@V?$unique_ptr@V?$basic_edge@Uno_node_info@graph@kmint@@@graph@kmint@@U?$default_delete@V?$basic_edge@Uno_node_info@graph@kmint@@@graph@kmint@@@std@@@std@@@2@@std@@QEAAX$$QEAV?$unique_ptr@V?$basic_edge@Uno_node_info@graph@kmint@@@graph@kmint@@U?$default_delete@V?$basic_edge@Uno_node_info@graph@kmint@@@graph@kmint@@@std@@@2@@Z
	?radians@angle@math@kmint@@QEBAMXZ
	?random_int@kmint@@YAHHH@Z
	?random_scalar@kmint@@YAMMM@Z
	?read_graph@graph@kmint@@YA?AV?$basic_graph@Uno_node_info@graph@kmint@@@12@AEAV?$basic_istream@DU?$char_traits@D@std@@@std@@@Z
	?read_map@map@kmint@@YA?AV112@AEAV?$basic_istream@DU?$char_traits@D@std@@@std@@@Z
	?read_map@map@kmint@@YA?AV112@AEBV?$basic_string@DU?$char_traits@D@std@@V?$allocator@D@2@@std@@@Z
	?read_map@map@kmint@@YA?AV112@PEBD@Z
	?read_map_header@map@kmint@@YA?AUmap_header@12@AEAV?$basic_istream@DU?$char_traits@D@std@@@std@@@Z
	?read_tile_info@map@kmint@@YA?AUtile_info@12@AEAV?$basic_istream@DU?$char_traits@D@std@@@std@@@Z
	?red@color@graphics@kmint@@QEBAEXZ
	?register_collision@actor@play@kmint@@QEAAXAEAV123@@Z
	?register_perceived@actor@play@kmint@@QEAAXAEAV123@@Z
	?release@?$unique_ptr@USDL_Texture@@V?$destroyer@USDL_Texture@@@sdl@ui@kmint@@@std@@QEAAPEAUSDL_Texture@@XZ
	?release@?$unique_ptr@Uimpl@frame@ui@kmint@@U?$default_delete@Uimpl@frame@ui@kmint@@@std@@@std@@QEAAPEAUimpl@frame@ui@kmint@@XZ
	?release@?$unique_ptr@V?$basic_edge@Umap_node_info@map@kmint@@@graph@kmint@@U?$default_delete@V?$basic_edge@Umap_node_info@map@kmint@@@graph@kmint@@@std@@@std@@QEAAPEAV?$basic_edge@Umap_node_info@map@kmint@@@graph@kmint@@XZ
	?release@?$unique_ptr@V?$basic_edge@Uno_node_info@graph@kmint@@@graph@kmint@@U?$default_delete@V?$basic_edge@Uno_node_info@graph@kmint@@@graph@kmint@@@std@@@std@@QEAAPEAV?$basic_edge@Uno_node_info@graph@kmint@@@graph@kmint@@XZ
	?release@?$unique_ptr@V?$basic_node@Umap_node_info@map@kmint@@@graph@kmint@@U?$default_delete@V?$basic_node@Umap_node_info@map@kmint@@@graph@kmint@@@std@@@std@@QEAAPEAV?$basic_node@Umap_node_info@map@kmint@@@graph@kmint@@XZ
	?release@?$unique_ptr@V?$basic_node@Uno_node_info@graph@kmint@@@graph@kmint@@U?$default_delete@V?$basic_node@Uno_node_info@graph@kmint@@@graph@kmint@@@std@@@std@@QEAAPEAV?$basic_node@Uno_node_info@graph@kmint@@@graph@kmint@@XZ
	?release@?$unique_ptr@V?$quad_tree@$03@play@kmint@@U?$default_delete@V?$quad_tree@$03@play@kmint@@@std@@@std@@QEAAPEAV?$quad_tree@$03@play@kmint@@XZ
	?release@?$unique_ptr@V_Facet_base@std@@U?$default_delete@V_Facet_base@std@@@2@@std@@QEAAPEAV_Facet_base@2@XZ
	?release@?$unique_ptr@Vactor@play@kmint@@U?$default_delete@Vactor@play@kmint@@@std@@@std@@QEAAPEAVactor@play@kmint@@XZ
	?release@?$unique_ptr@Vimpl@app@ui@kmint@@U?$default_delete@Vimpl@app@ui@kmint@@@std@@@std@@QEAAPEAVimpl@app@ui@kmint@@XZ
	?release@?$unique_ptr@Vimpl@window@ui@kmint@@U?$default_delete@Vimpl@window@ui@kmint@@@std@@@std@@QEAAPEAVimpl@window@ui@kmint@@XZ
	?remove_actor@stage@play@kmint@@QEAAXAEBVactor@23@@Z
	?removed@actor@play@kmint@@QEBA_NXZ
	?render@sdl@ui@kmint@@YAXPEAUSDL_Renderer@@AEBVtexture@123@V?$basic_vector2d@M@math@3@M@Z
	?render@sdl@ui@kmint@@YAXPEAUSDL_Renderer@@AEBVtexture@123@V?$basic_vector2d@M@math@3@MVcolor@graphics@3@@Z
	?render_color@frame@ui@kmint@@QEAAXAEBVcolor@graphics@3@@Z
	?render_color@frame@ui@kmint@@QEBA?AVcolor@graphics@3@XZ
	?render_color@renderer@ui@kmint@@QEAAXAEBVcolor@graphics@3@@Z
	?render_color@renderer@ui@kmint@@QEBA?AVcolor@graphics@3@XZ
	?render_image@renderer@ui@kmint@@QEAAXV?$basic_vector2d@M@math@3@AEBVimage@graphics@3@@Z
	?render_image@renderer@ui@kmint@@QEAAXV?$basic_vector2d@M@math@3@AEBVimage@graphics@3@Vcolor@73@@Z
	?render_line@renderer@ui@kmint@@QEAAXV?$basic_vector2d@M@math@3@0@Z
	?render_rectangle@renderer@ui@kmint@@QEAAXV?$basic_vector2d@M@math@3@V?$basic_size@M@53@@Z
	?reserve@?$vector@DV?$allocator@D@std@@@std@@QEAAX_K@Z
	?reset@?$unique_ptr@Uimpl@frame@ui@kmint@@U?$default_delete@Uimpl@frame@ui@kmint@@@std@@@std@@QEAAXPEAUimpl@frame@ui@kmint@@@Z
	?reset@?$unique_ptr@V?$quad_tree@$03@play@kmint@@U?$default_delete@V?$quad_tree@$03@play@kmint@@@std@@@std@@QEAAXPEAV?$quad_tree@$03@play@kmint@@@Z
	?reset@?$unique_ptr@Vactor@play@kmint@@U?$default_delete@Vactor@play@kmint@@@std@@@std@@QEAAXPEAVactor@play@kmint@@@Z
	?reset@?$unique_ptr@Vimpl@app@ui@kmint@@U?$default_delete@Vimpl@app@ui@kmint@@@std@@@std@@QEAAXPEAVimpl@app@ui@kmint@@@Z
	?reset@?$unique_ptr@Vimpl@window@ui@kmint@@U?$default_delete@Vimpl@window@ui@kmint@@@std@@@std@@QEAAXPEAVimpl@window@ui@kmint@@@Z
	?scale@image@graphics@kmint@@QEBAMXZ
	?seed@?$mersenne_twister@I$0CA@$0CHA@$0BIN@$0BP@$0JJAILANP@$0L@$06$0JNCMFGIA@$0P@$0OPMGAAAA@$0BC@@std@@QEAAXII@Z
	?seekoff@?$basic_stringbuf@DU?$char_traits@D@std@@V?$allocator@D@2@@std@@MEAA?AV?$fpos@U_Mbstatet@@@2@_JHH@Z
	?seekpos@?$basic_stringbuf@DU?$char_traits@D@std@@V?$allocator@D@2@@std@@MEAA?AV?$fpos@U_Mbstatet@@@2@V32@H@Z
	?select_on_container_copy_construction@?$_Default_allocator_traits@V?$allocator@D@std@@@std@@SA?AV?$allocator@D@2@AEBV32@@Z
	?select_on_container_copy_construction@?$_Default_allocator_traits@V?$allocator@U?$_Tree_node@U?$pair@$$CBDUtile_info@map@kmint@@@std@@PEAX@std@@@std@@@std@@SA?AV?$allocator@U?$_Tree_node@U?$pair@$$CBDUtile_info@map@kmint@@@std@@PEAX@std@@@2@AEBV32@@Z
	?sin@@YAMM@Z
	?sin@math@kmint@@YAMVangle@12@@Z
	?size@?$_Hash_vec@V?$allocator@V?$_List_unchecked_iterator@V?$_List_val@U?$_List_simple_types@U?$pair@$$CBDV?$vector@PEAV?$basic_node@Umap_node_info@map@kmint@@@graph@kmint@@V?$allocator@PEAV?$basic_node@Umap_node_info@map@kmint@@@graph@kmint@@@std@@@std@@@std@@@std@@@std@@@std@@@std@@@std@@QEBA_KXZ
	?size@?$basic_rectangle@M@math@kmint@@QEBAAEBV?$basic_size@M@23@XZ
	?size@?$basic_string@DU?$char_traits@D@std@@V?$allocator@D@2@@std@@QEBA_KXZ
	?size@?$vector@DV?$allocator@D@std@@@std@@QEBA_KXZ
	?size@?$vector@V?$unique_ptr@V?$basic_node@Umap_node_info@map@kmint@@@graph@kmint@@U?$default_delete@V?$basic_node@Umap_node_info@map@kmint@@@graph@kmint@@@std@@@std@@V?$allocator@V?$unique_ptr@V?$basic_node@Umap_node_info@map@kmint@@@graph@kmint@@U?$default_delete@V?$basic_node@Umap_node_info@map@kmint@@@graph@kmint@@@std@@@std@@@2@@std@@QEBA_KXZ
	?size@?$vector@V?$unique_ptr@V?$basic_node@Uno_node_info@graph@kmint@@@graph@kmint@@U?$default_delete@V?$basic_node@Uno_node_info@graph@kmint@@@graph@kmint@@@std@@@std@@V?$allocator@V?$unique_ptr@V?$basic_node@Uno_node_info@graph@kmint@@@graph@kmint@@U?$default_delete@V?$basic_node@Uno_node_info@graph@kmint@@@graph@kmint@@@std@@@std@@@2@@std@@QEBA_KXZ
	?split@?$quad_tree@$03@play@kmint@@AEAA?AUsaturated@123@AEAUfree@123@AEAVactor@23@@Z
	?square_box_centered@actor@play@kmint@@AEBA?AV?$basic_rectangle@M@math@3@M@Z
	?to_char_type@?$_Narrow_char_traits@DH@std@@SADAEBH@Z
	?to_int_type@?$_Narrow_char_traits@DH@std@@SAHAEBD@Z
	?to_tile_index@internal_map@map@kmint@@QEBAHHH@Z
	?top_left@?$basic_rectangle@M@math@kmint@@QEBAAEBV?$basic_vector2d@M@23@XZ
	?underflow@?$basic_stringbuf@DU?$char_traits@D@std@@V?$allocator@D@2@@std@@MEAAHXZ
	?unwrap@texture@sdl@ui@kmint@@QEBAPEAUSDL_Texture@@XZ
	?what@bad_variant_access@std@@UEBAPEBDXZ
	?what@exception@std@@UEBAPEBDXZ
	?width@?$basic_size@H@math@kmint@@QEAAXH@Z
	?width@?$basic_size@H@math@kmint@@QEBAHXZ
	?width@?$basic_size@M@math@kmint@@QEBAMXZ
	?width@internal_map@map@kmint@@QEBAHXZ
	?width@surface@sdl@ui@kmint@@QEBAMXZ
	?width@texture@sdl@ui@kmint@@QEBAMXZ
	?x@?$basic_vector2d@M@math@kmint@@QEAAXM@Z
	?x@?$basic_vector2d@M@math@kmint@@QEBAMXZ
	?y@?$basic_vector2d@M@math@kmint@@QEAAXM@Z
	?y@?$basic_vector2d@M@math@kmint@@QEBAMXZ
